
build/main.elf:     file format elf32-littlearm


Disassembly of section .init:

00008000 <__ram_start>:
    8000:	e59ff018 	ldr	pc, [pc, #24]	; 8020 <reset_handler>
    8004:	e59ff018 	ldr	pc, [pc, #24]	; 8024 <undefined_handler>
    8008:	e59ff018 	ldr	pc, [pc, #24]	; 8028 <swi_handler>
    800c:	e59ff018 	ldr	pc, [pc, #24]	; 802c <prefetch_handler>
    8010:	e59ff018 	ldr	pc, [pc, #24]	; 8030 <data_handler>
    8014:	e59ff018 	ldr	pc, [pc, #24]	; 8034 <unused_handler>
    8018:	e59ff018 	ldr	pc, [pc, #24]	; 8038 <irq_handler>
    801c:	e59ff018 	ldr	pc, [pc, #24]	; 803c <fiq_handler>

00008020 <reset_handler>:
    8020:	00008040 	andeq	r8, r0, r0, asr #32

00008024 <undefined_handler>:
    8024:	000080e0 	andeq	r8, r0, r0, ror #1

00008028 <swi_handler>:
    8028:	000080e0 	andeq	r8, r0, r0, ror #1

0000802c <prefetch_handler>:
    802c:	000080e0 	andeq	r8, r0, r0, ror #1

00008030 <data_handler>:
    8030:	000080e0 	andeq	r8, r0, r0, ror #1

00008034 <unused_handler>:
    8034:	000080e0 	andeq	r8, r0, r0, ror #1

00008038 <irq_handler>:
    8038:	000080bc 	strheq	r8, [r0], -ip

0000803c <fiq_handler>:
    803c:	000080c0 	andeq	r8, r0, r0, asr #1

00008040 <reset>:
    8040:	e59f107c 	ldr	r1, [pc, #124]	; 80c4 <fiq+0x4>
    8044:	e3a02000 	mov	r2, #0
    8048:	e59f3078 	ldr	r3, [pc, #120]	; 80c8 <fiq+0x8>
    804c:	e1520003 	cmp	r2, r3
    8050:	34910004 	ldrcc	r0, [r1], #4
    8054:	34820004 	strcc	r0, [r2], #4
    8058:	3afffffb 	bcc	804c <reset+0xc>
    805c:	e321f0d2 	msr	CPSR_c, #210	; 0xd2
    8060:	e59f0064 	ldr	r0, [pc, #100]	; 80cc <fiq+0xc>
    8064:	e1a0d000 	mov	sp, r0
    8068:	e321f0d1 	msr	CPSR_c, #209	; 0xd1
    806c:	e59f005c 	ldr	r0, [pc, #92]	; 80d0 <fiq+0x10>
    8070:	e1a0d000 	mov	sp, r0
    8074:	e321f0d3 	msr	CPSR_c, #211	; 0xd3
    8078:	e59f0054 	ldr	r0, [pc, #84]	; 80d4 <fiq+0x14>
    807c:	e1a0d000 	mov	sp, r0
    8080:	ee110f50 	mrc	15, 0, r0, cr1, cr0, {2}
    8084:	e3800603 	orr	r0, r0, #3145728	; 0x300000
    8088:	e3800503 	orr	r0, r0, #12582912	; 0xc00000
    808c:	ee010f50 	mcr	15, 0, r0, cr1, cr0, {2}
    8090:	e3a00101 	mov	r0, #1073741824	; 0x40000000
    8094:	eee80a10 	vmsr	fpexc, r0
    8098:	e3a00000 	mov	r0, #0
    809c:	e59f1034 	ldr	r1, [pc, #52]	; 80d8 <fiq+0x18>
    80a0:	e59f2034 	ldr	r2, [pc, #52]	; 80dc <fiq+0x1c>
    80a4:	e1510002 	cmp	r1, r2
    80a8:	34810004 	strcc	r0, [r1], #4
    80ac:	3afffffc 	bcc	80a4 <reset+0x64>
    80b0:	eb0000b7 	bl	8394 <notmain>

000080b4 <halt>:
    80b4:	e320f002 	wfe
    80b8:	eafffffd 	b	80b4 <halt>

000080bc <irq>:
    80bc:	ea000057 	b	8220 <c_irq_handler>

000080c0 <fiq>:
    80c0:	ea000057 	b	8224 <c_fiq_handler>
    80c4:	00008000 	andeq	r8, r0, r0
    80c8:	00008020 	andeq	r8, r0, r0, lsr #32
    80cc:	0000c9b4 			; <UNDEFINED> instruction: 0x0000c9b4
    80d0:	0000c5b4 			; <UNDEFINED> instruction: 0x0000c5b4
    80d4:	0000cdb4 			; <UNDEFINED> instruction: 0x0000cdb4
    80d8:	0000b970 	andeq	fp, r0, r0, ror r9
    80dc:	0000b9b4 			; <UNDEFINED> instruction: 0x0000b9b4

Disassembly of section .text:

000080e0 <hang>:
    80e0:	eafffffe 	b	80e0 <hang>

000080e4 <__enable_irq>:
    80e4:	e10f0000 	mrs	r0, CPSR
    80e8:	e3c00080 	bic	r0, r0, #128	; 0x80
    80ec:	e121f000 	msr	CPSR_c, r0
    80f0:	e12fff1e 	bx	lr

000080f4 <__disable_irq>:
    80f4:	e10f1000 	mrs	r1, CPSR
    80f8:	e3811080 	orr	r1, r1, #128	; 0x80
    80fc:	e121f001 	msr	CPSR_c, r1
    8100:	e12fff1e 	bx	lr

00008104 <__enable_fiq>:
    8104:	e10f0000 	mrs	r0, CPSR
    8108:	e3c00040 	bic	r0, r0, #64	; 0x40
    810c:	e121f000 	msr	CPSR_c, r0
    8110:	e12fff1e 	bx	lr

00008114 <__disable_fiq>:
    8114:	e10f1000 	mrs	r1, CPSR
    8118:	e3811040 	orr	r1, r1, #64	; 0x40
    811c:	e121f001 	msr	CPSR_c, r1
    8120:	e12fff1e 	bx	lr

00008124 <memory_barrier>:
    8124:	e3a00000 	mov	r0, #0
    8128:	ee070fba 	mcr	15, 0, r0, cr7, cr10, {5}
    812c:	e12fff1e 	bx	lr

00008130 <bcm2835_gpio_fsel>:
    8130:	e52de004 	push	{lr}		; (str lr, [sp, #-4]!)
    8134:	e1a03000 	mov	r3, r0
    8138:	e59f0034 	ldr	r0, [pc, #52]	; 8174 <bcm2835_gpio_fsel+0x44>
    813c:	e3530009 	cmp	r3, #9
    8140:	8243300a 	subhi	r3, r3, #10
    8144:	82800004 	addhi	r0, r0, #4
    8148:	8afffffb 	bhi	813c <bcm2835_gpio_fsel+0xc>
    814c:	e0833083 	add	r3, r3, r3, lsl #1
    8150:	e3a02007 	mov	r2, #7
    8154:	e1a02312 	lsl	r2, r2, r3
    8158:	e1a01311 	lsl	r1, r1, r3
    815c:	e5903000 	ldr	r3, [r0]
    8160:	e0021001 	and	r1, r2, r1
    8164:	e1c33002 	bic	r3, r3, r2
    8168:	e1833001 	orr	r3, r3, r1
    816c:	e5803000 	str	r3, [r0]
    8170:	e49df004 	pop	{pc}		; (ldr pc, [sp], #4)
    8174:	20200000 	eorcs	r0, r0, r0

00008178 <bcm2835_spi_write>:
    8178:	e59f304c 	ldr	r3, [pc, #76]	; 81cc <cs_done+0x1c>
    817c:	e5931000 	ldr	r1, [r3]
    8180:	e3811030 	orr	r1, r1, #48	; 0x30
    8184:	e5831000 	str	r1, [r3]
    8188:	e5931000 	ldr	r1, [r3]
    818c:	e3811080 	orr	r1, r1, #128	; 0x80
    8190:	e5831000 	str	r1, [r3]

00008194 <cs_txd_loop>:
    8194:	e5931000 	ldr	r1, [r3]
    8198:	e3110701 	tst	r1, #262144	; 0x40000
    819c:	0afffffc 	beq	8194 <cs_txd_loop>
    81a0:	e1a01420 	lsr	r1, r0, #8
    81a4:	e6ef0070 	uxtb	r0, r0
    81a8:	e5831004 	str	r1, [r3, #4]
    81ac:	e5830004 	str	r0, [r3, #4]

000081b0 <cs_done>:
    81b0:	e5931000 	ldr	r1, [r3]
    81b4:	e3110801 	tst	r1, #65536	; 0x10000
    81b8:	0afffffc 	beq	81b0 <cs_done>
    81bc:	e5931000 	ldr	r1, [r3]
    81c0:	e3c11080 	bic	r1, r1, #128	; 0x80
    81c4:	e5831000 	str	r1, [r3]
    81c8:	e12fff1e 	bx	lr
    81cc:	20204000 	eorcs	r4, r0, r0

000081d0 <bcm2835_st_delay>:
    81d0:	e92d4038 	push	{r3, r4, r5, lr}
    81d4:	e0924000 	adds	r4, r2, r0
    81d8:	e0a35001 	adc	r5, r3, r1
    81dc:	e59f2010 	ldr	r2, [pc, #16]	; 81f4 <bcm2835_st_delay+0x24>
    81e0:	e1c200d4 	ldrd	r0, [r2, #4]
    81e4:	e1510005 	cmp	r1, r5
    81e8:	01500004 	cmpeq	r0, r4
    81ec:	3afffffb 	bcc	81e0 <bcm2835_st_delay+0x10>
    81f0:	e8bd8038 	pop	{r3, r4, r5, pc}
    81f4:	20003000 	andcs	r3, r0, r0

000081f8 <udelay>:
    81f8:	e92d4030 	push	{r4, r5, lr}
    81fc:	e1a05000 	mov	r5, r0
    8200:	e59f4014 	ldr	r4, [pc, #20]	; 821c <udelay+0x24>
    8204:	e1c420d4 	ldrd	r2, [r4, #4]
    8208:	e1c400d4 	ldrd	r0, [r4, #4]
    820c:	e0401002 	sub	r1, r0, r2
    8210:	e1510005 	cmp	r1, r5
    8214:	9afffffb 	bls	8208 <udelay+0x10>
    8218:	e8bd8030 	pop	{r4, r5, pc}
    821c:	20003000 	andcs	r3, r0, r0

00008220 <c_irq_handler>:
    8220:	e25ef004 	subs	pc, lr, #4

00008224 <c_fiq_handler>:
    8224:	e25ef004 	subs	pc, lr, #4

00008228 <data_gpio_fsel_output>:
    8228:	e59f3028 	ldr	r3, [pc, #40]	; 8258 <data_gpio_fsel_output+0x30>
    822c:	e59f2028 	ldr	r2, [pc, #40]	; 825c <data_gpio_fsel_output+0x34>
    8230:	e5931000 	ldr	r1, [r3]
    8234:	e0012002 	and	r2, r1, r2
    8238:	e3822692 	orr	r2, r2, #153092096	; 0x9200000
    823c:	e3822d49 	orr	r2, r2, #4672	; 0x1240
    8240:	e5832000 	str	r2, [r3]
    8244:	e5932004 	ldr	r2, [r3, #4]
    8248:	e3c2203f 	bic	r2, r2, #63	; 0x3f
    824c:	e3822009 	orr	r2, r2, #9
    8250:	e5832004 	str	r2, [r3, #4]
    8254:	e12fff1e 	bx	lr
    8258:	20200000 	eorcs	r0, r0, r0
    825c:	c01f803f 	andsgt	r8, pc, pc, lsr r0	; <UNPREDICTABLE>

00008260 <data_gpio_fsel_input>:
    8260:	e59f301c 	ldr	r3, [pc, #28]	; 8284 <data_gpio_fsel_input+0x24>
    8264:	e59f201c 	ldr	r2, [pc, #28]	; 8288 <data_gpio_fsel_input+0x28>
    8268:	e5931000 	ldr	r1, [r3]
    826c:	e0012002 	and	r2, r1, r2
    8270:	e5832000 	str	r2, [r3]
    8274:	e5932004 	ldr	r2, [r3, #4]
    8278:	e3c2203f 	bic	r2, r2, #63	; 0x3f
    827c:	e5832004 	str	r2, [r3, #4]
    8280:	e12fff1e 	bx	lr
    8284:	20200000 	eorcs	r0, r0, r0
    8288:	c01f803f 	andsgt	r8, pc, pc, lsr r0	; <UNPREDICTABLE>

0000828c <FT245RL_init>:
    828c:	e59f301c 	ldr	r3, [pc, #28]	; 82b0 <FT245RL_init+0x24>
    8290:	e5932008 	ldr	r2, [r3, #8]
    8294:	e3822d09 	orr	r2, r2, #576	; 0x240
    8298:	e5832008 	str	r2, [r3, #8]
    829c:	e3a02502 	mov	r2, #8388608	; 0x800000
    82a0:	e583201c 	str	r2, [r3, #28]
    82a4:	e3a02501 	mov	r2, #4194304	; 0x400000
    82a8:	e5832028 	str	r2, [r3, #40]	; 0x28
    82ac:	e12fff1e 	bx	lr
    82b0:	20200000 	eorcs	r0, r0, r0

000082b4 <FT245RL_write_data>:
    82b4:	e59f3064 	ldr	r3, [pc, #100]	; 8320 <FT245RL_write_data+0x6c>
    82b8:	e59f2064 	ldr	r2, [pc, #100]	; 8324 <FT245RL_write_data+0x70>
    82bc:	e5931000 	ldr	r1, [r3]
    82c0:	e0012002 	and	r2, r1, r2
    82c4:	e3822692 	orr	r2, r2, #153092096	; 0x9200000
    82c8:	e3822d49 	orr	r2, r2, #4672	; 0x1240
    82cc:	e5832000 	str	r2, [r3]
    82d0:	e5932004 	ldr	r2, [r3, #4]
    82d4:	e3c2203f 	bic	r2, r2, #63	; 0x3f
    82d8:	e3822009 	orr	r2, r2, #9
    82dc:	e5832004 	str	r2, [r3, #4]
    82e0:	e3a02501 	mov	r2, #4194304	; 0x400000
    82e4:	e583201c 	str	r2, [r3, #28]
    82e8:	e320f000 	nop	{0}
    82ec:	e3c03007 	bic	r3, r0, #7
    82f0:	e1a03203 	lsl	r3, r3, #4
    82f4:	e2000007 	and	r0, r0, #7
    82f8:	e1830100 	orr	r0, r3, r0, lsl #2
    82fc:	e2202ef9 	eor	r2, r0, #3984	; 0xf90
    8300:	e59f3018 	ldr	r3, [pc, #24]	; 8320 <FT245RL_write_data+0x6c>
    8304:	e222200c 	eor	r2, r2, #12
    8308:	e583001c 	str	r0, [r3, #28]
    830c:	e5832028 	str	r2, [r3, #40]	; 0x28
    8310:	e320f000 	nop	{0}
    8314:	e3a02501 	mov	r2, #4194304	; 0x400000
    8318:	e5832028 	str	r2, [r3, #40]	; 0x28
    831c:	e12fff1e 	bx	lr
    8320:	20200000 	eorcs	r0, r0, r0
    8324:	c01f803f 	andsgt	r8, pc, pc, lsr r0	; <UNPREDICTABLE>

00008328 <FT245RL_read_data>:
    8328:	e59f3058 	ldr	r3, [pc, #88]	; 8388 <FT245RL_read_data+0x60>
    832c:	e59f2058 	ldr	r2, [pc, #88]	; 838c <FT245RL_read_data+0x64>
    8330:	e5931000 	ldr	r1, [r3]
    8334:	e0012002 	and	r2, r1, r2
    8338:	e5832000 	str	r2, [r3]
    833c:	e5932004 	ldr	r2, [r3, #4]
    8340:	e3c2203f 	bic	r2, r2, #63	; 0x3f
    8344:	e5832004 	str	r2, [r3, #4]
    8348:	e3a02502 	mov	r2, #8388608	; 0x800000
    834c:	e5832028 	str	r2, [r3, #40]	; 0x28
    8350:	e320f000 	nop	{0}
    8354:	e59f202c 	ldr	r2, [pc, #44]	; 8388 <FT245RL_read_data+0x60>
    8358:	e59f3030 	ldr	r3, [pc, #48]	; 8390 <FT245RL_read_data+0x68>
    835c:	e5921034 	ldr	r1, [r2, #52]	; 0x34
    8360:	e0013003 	and	r3, r1, r3
    8364:	e3a01502 	mov	r1, #8388608	; 0x800000
    8368:	e582101c 	str	r1, [r2, #28]
    836c:	e1a03123 	lsr	r3, r3, #2
    8370:	e320f000 	nop	{0}
    8374:	e1a00123 	lsr	r0, r3, #2
    8378:	e3c00007 	bic	r0, r0, #7
    837c:	e203300f 	and	r3, r3, #15
    8380:	e1800003 	orr	r0, r0, r3
    8384:	e12fff1e 	bx	lr
    8388:	20200000 	eorcs	r0, r0, r0
    838c:	c01f803f 	andsgt	r8, pc, pc, lsr r0	; <UNPREDICTABLE>
    8390:	00000f9c 	muleq	r0, ip, pc	; <UNPREDICTABLE>

00008394 <notmain>:
    8394:	e59f212c 	ldr	r2, [pc, #300]	; 84c8 <notmain+0x134>
    8398:	e92d4070 	push	{r4, r5, r6, lr}
    839c:	e5923008 	ldr	r3, [r2, #8]
    83a0:	e3a0e502 	mov	lr, #8388608	; 0x800000
    83a4:	e3833d09 	orr	r3, r3, #576	; 0x240
    83a8:	e3a0c501 	mov	ip, #4194304	; 0x400000
    83ac:	e59f5118 	ldr	r5, [pc, #280]	; 84cc <notmain+0x138>
    83b0:	e5823008 	str	r3, [r2, #8]
    83b4:	e3a04088 	mov	r4, #136	; 0x88
    83b8:	e582e01c 	str	lr, [r2, #28]
    83bc:	e1a03002 	mov	r3, r2
    83c0:	e582c028 	str	ip, [r2, #40]	; 0x28
    83c4:	e5932034 	ldr	r2, [r3, #52]	; 0x34
    83c8:	e3120402 	tst	r2, #33554432	; 0x2000000
    83cc:	1afffffc 	bne	83c4 <notmain+0x30>
    83d0:	e5931000 	ldr	r1, [r3]
    83d4:	e59f20f4 	ldr	r2, [pc, #244]	; 84d0 <notmain+0x13c>
    83d8:	e0012002 	and	r2, r1, r2
    83dc:	e5832000 	str	r2, [r3]
    83e0:	e5932004 	ldr	r2, [r3, #4]
    83e4:	e3c2203f 	bic	r2, r2, #63	; 0x3f
    83e8:	e5832004 	str	r2, [r3, #4]
    83ec:	e583e028 	str	lr, [r3, #40]	; 0x28
    83f0:	e320f000 	nop	{0}
    83f4:	e59f20d8 	ldr	r2, [pc, #216]	; 84d4 <notmain+0x140>
    83f8:	e5931034 	ldr	r1, [r3, #52]	; 0x34
    83fc:	e583e01c 	str	lr, [r3, #28]
    8400:	e0012002 	and	r2, r1, r2
    8404:	e1a01222 	lsr	r1, r2, #4
    8408:	e3c11007 	bic	r1, r1, #7
    840c:	e1a02d82 	lsl	r2, r2, #27
    8410:	e1812ea2 	orr	r2, r1, r2, lsr #29
    8414:	e6ef2072 	uxtb	r2, r2
    8418:	e6ef0072 	uxtb	r0, r2
    841c:	e320f000 	nop	{0}
    8420:	e350000d 	cmp	r0, #13
    8424:	0a000016 	beq	8484 <notmain+0xf0>
    8428:	e5936000 	ldr	r6, [r3]
    842c:	e59f109c 	ldr	r1, [pc, #156]	; 84d0 <notmain+0x13c>
    8430:	e0061001 	and	r1, r6, r1
    8434:	e3811692 	orr	r1, r1, #153092096	; 0x9200000
    8438:	e3811d49 	orr	r1, r1, #4672	; 0x1240
    843c:	e5831000 	str	r1, [r3]
    8440:	e5931004 	ldr	r1, [r3, #4]
    8444:	e3c1103f 	bic	r1, r1, #63	; 0x3f
    8448:	e3811009 	orr	r1, r1, #9
    844c:	e5831004 	str	r1, [r3, #4]
    8450:	e583c01c 	str	ip, [r3, #28]
    8454:	e320f000 	nop	{0}
    8458:	e3c00007 	bic	r0, r0, #7
    845c:	e1a00200 	lsl	r0, r0, #4
    8460:	e2022007 	and	r2, r2, #7
    8464:	e1802102 	orr	r2, r0, r2, lsl #2
    8468:	e2221ef9 	eor	r1, r2, #3984	; 0xf90
    846c:	e221100c 	eor	r1, r1, #12
    8470:	e583201c 	str	r2, [r3, #28]
    8474:	e5831028 	str	r1, [r3, #40]	; 0x28
    8478:	e320f000 	nop	{0}
    847c:	e583c028 	str	ip, [r3, #40]	; 0x28
    8480:	eaffffcf 	b	83c4 <notmain+0x30>
    8484:	e5936000 	ldr	r6, [r3]
    8488:	e59f1040 	ldr	r1, [pc, #64]	; 84d0 <notmain+0x13c>
    848c:	e0061001 	and	r1, r6, r1
    8490:	e3811692 	orr	r1, r1, #153092096	; 0x9200000
    8494:	e3811d49 	orr	r1, r1, #4672	; 0x1240
    8498:	e5831000 	str	r1, [r3]
    849c:	e5931004 	ldr	r1, [r3, #4]
    84a0:	e3c1103f 	bic	r1, r1, #63	; 0x3f
    84a4:	e3811009 	orr	r1, r1, #9
    84a8:	e5831004 	str	r1, [r3, #4]
    84ac:	e583c01c 	str	ip, [r3, #28]
    84b0:	e320f000 	nop	{0}
    84b4:	e583401c 	str	r4, [r3, #28]
    84b8:	e5835028 	str	r5, [r3, #40]	; 0x28
    84bc:	e320f000 	nop	{0}
    84c0:	e583c028 	str	ip, [r3, #40]	; 0x28
    84c4:	eaffffd7 	b	8428 <notmain+0x94>
    84c8:	20200000 	eorcs	r0, r0, r0
    84cc:	00000f14 	andeq	r0, r0, r4, lsl pc
    84d0:	c01f803f 	andsgt	r8, pc, pc, lsr r0	; <UNPREDICTABLE>
    84d4:	00000f9c 	muleq	r0, ip, pc	; <UNPREDICTABLE>

000084d8 <bcm2835_gpio_set_pud>:
    84d8:	e92d4038 	push	{r3, r4, r5, lr}
    84dc:	e59f403c 	ldr	r4, [pc, #60]	; 8520 <bcm2835_gpio_set_pud+0x48>
    84e0:	e1a03001 	mov	r3, r1
    84e4:	e1a05000 	mov	r5, r0
    84e8:	e3a01000 	mov	r1, #0
    84ec:	e3a0000a 	mov	r0, #10
    84f0:	e5843094 	str	r3, [r4, #148]	; 0x94
    84f4:	ebffff3f 	bl	81f8 <udelay>
    84f8:	e3a03001 	mov	r3, #1
    84fc:	e1a05513 	lsl	r5, r3, r5
    8500:	e3a0000a 	mov	r0, #10
    8504:	e3a01000 	mov	r1, #0
    8508:	e5845098 	str	r5, [r4, #152]	; 0x98
    850c:	ebffff39 	bl	81f8 <udelay>
    8510:	e3a03000 	mov	r3, #0
    8514:	e5843094 	str	r3, [r4, #148]	; 0x94
    8518:	e5843098 	str	r3, [r4, #152]	; 0x98
    851c:	e8bd8038 	pop	{r3, r4, r5, pc}
    8520:	20200000 	eorcs	r0, r0, r0

00008524 <bcm2835_i2c_begin>:
    8524:	e59f3028 	ldr	r3, [pc, #40]	; 8554 <bcm2835_i2c_begin+0x30>
    8528:	e5932000 	ldr	r2, [r3]
    852c:	e3c22d3f 	bic	r2, r2, #4032	; 0xfc0
    8530:	e5832000 	str	r2, [r3]
    8534:	e5932000 	ldr	r2, [r3]
    8538:	e3c22d3f 	bic	r2, r2, #4032	; 0xfc0
    853c:	e3822c09 	orr	r2, r2, #2304	; 0x900
    8540:	e5832000 	str	r2, [r3]
    8544:	e59f200c 	ldr	r2, [pc, #12]	; 8558 <bcm2835_i2c_begin+0x34>
    8548:	e59f300c 	ldr	r3, [pc, #12]	; 855c <bcm2835_i2c_begin+0x38>
    854c:	e5832014 	str	r2, [r3, #20]
    8550:	e12fff1e 	bx	lr
    8554:	20200000 	eorcs	r0, r0, r0
    8558:	000009c4 	andeq	r0, r0, r4, asr #19
    855c:	20804000 	addcs	r4, r0, r0

00008560 <bcm2835_i2c_end>:
    8560:	e59f300c 	ldr	r3, [pc, #12]	; 8574 <bcm2835_i2c_end+0x14>
    8564:	e5932000 	ldr	r2, [r3]
    8568:	e3c22d3f 	bic	r2, r2, #4032	; 0xfc0
    856c:	e5832000 	str	r2, [r3]
    8570:	e12fff1e 	bx	lr
    8574:	20200000 	eorcs	r0, r0, r0

00008578 <bcm2835_i2c_setSlaveAddress>:
    8578:	e59f3004 	ldr	r3, [pc, #4]	; 8584 <bcm2835_i2c_setSlaveAddress+0xc>
    857c:	e583000c 	str	r0, [r3, #12]
    8580:	e12fff1e 	bx	lr
    8584:	20804000 	addcs	r4, r0, r0

00008588 <bcm2835_i2c_setClockDivider>:
    8588:	e59f3004 	ldr	r3, [pc, #4]	; 8594 <bcm2835_i2c_setClockDivider+0xc>
    858c:	e5830014 	str	r0, [r3, #20]
    8590:	e12fff1e 	bx	lr
    8594:	20804000 	addcs	r4, r0, r0

00008598 <bcm2835_i2c_write>:
    8598:	e52d4004 	push	{r4}		; (str r4, [sp, #-4]!)
    859c:	e59f40f8 	ldr	r4, [pc, #248]	; 869c <bcm2835_i2c_write+0x104>
    85a0:	e3a03020 	mov	r3, #32
    85a4:	e5843000 	str	r3, [r4]
    85a8:	e59f30f0 	ldr	r3, [pc, #240]	; 86a0 <bcm2835_i2c_write+0x108>
    85ac:	e3510000 	cmp	r1, #0
    85b0:	e5843004 	str	r3, [r4, #4]
    85b4:	e5841008 	str	r1, [r4, #8]
    85b8:	0a000035 	beq	8694 <bcm2835_i2c_write+0xfc>
    85bc:	e3a03000 	mov	r3, #0
    85c0:	e2511001 	subs	r1, r1, #1
    85c4:	e7d02003 	ldrb	r2, [r0, r3]
    85c8:	03a0c000 	moveq	ip, #0
    85cc:	13a0c001 	movne	ip, #1
    85d0:	e2833001 	add	r3, r3, #1
    85d4:	e353000f 	cmp	r3, #15
    85d8:	83a0c000 	movhi	ip, #0
    85dc:	920cc001 	andls	ip, ip, #1
    85e0:	e35c0000 	cmp	ip, #0
    85e4:	e5842010 	str	r2, [r4, #16]
    85e8:	1afffff4 	bne	85c0 <bcm2835_i2c_write+0x28>
    85ec:	e59fc0a8 	ldr	ip, [pc, #168]	; 869c <bcm2835_i2c_write+0x104>
    85f0:	e59f40ac 	ldr	r4, [pc, #172]	; 86a4 <bcm2835_i2c_write+0x10c>
    85f4:	e1a0200c 	mov	r2, ip
    85f8:	e58c4000 	str	r4, [ip]
    85fc:	e592c004 	ldr	ip, [r2, #4]
    8600:	e59f4094 	ldr	r4, [pc, #148]	; 869c <bcm2835_i2c_write+0x104>
    8604:	e31c0002 	tst	ip, #2
    8608:	1a00000d 	bne	8644 <bcm2835_i2c_write+0xac>
    860c:	e3510000 	cmp	r1, #0
    8610:	0afffff9 	beq	85fc <bcm2835_i2c_write+0x64>
    8614:	e592c004 	ldr	ip, [r2, #4]
    8618:	e31c0010 	tst	ip, #16
    861c:	0afffff6 	beq	85fc <bcm2835_i2c_write+0x64>
    8620:	e7d0c003 	ldrb	ip, [r0, r3]
    8624:	e2511001 	subs	r1, r1, #1
    8628:	e582c010 	str	ip, [r2, #16]
    862c:	e2833001 	add	r3, r3, #1
    8630:	1afffff7 	bne	8614 <bcm2835_i2c_write+0x7c>
    8634:	e592c004 	ldr	ip, [r2, #4]
    8638:	e59f405c 	ldr	r4, [pc, #92]	; 869c <bcm2835_i2c_write+0x104>
    863c:	e31c0002 	tst	ip, #2
    8640:	0afffff1 	beq	860c <bcm2835_i2c_write+0x74>
    8644:	e5943004 	ldr	r3, [r4, #4]
    8648:	e3130c01 	tst	r3, #256	; 0x100
    864c:	1a00000c 	bne	8684 <bcm2835_i2c_write+0xec>
    8650:	e5943004 	ldr	r3, [r4, #4]
    8654:	e3130c02 	tst	r3, #512	; 0x200
    8658:	13a00002 	movne	r0, #2
    865c:	0a000004 	beq	8674 <bcm2835_i2c_write+0xdc>
    8660:	e59f3034 	ldr	r3, [pc, #52]	; 869c <bcm2835_i2c_write+0x104>
    8664:	e3a02002 	mov	r2, #2
    8668:	e5832000 	str	r2, [r3]
    866c:	e8bd0010 	ldmfd	sp!, {r4}
    8670:	e12fff1e 	bx	lr
    8674:	e3510000 	cmp	r1, #0
    8678:	13a00004 	movne	r0, #4
    867c:	03a00000 	moveq	r0, #0
    8680:	eafffff6 	b	8660 <bcm2835_i2c_write+0xc8>
    8684:	e3a03c01 	mov	r3, #256	; 0x100
    8688:	e5843004 	str	r3, [r4, #4]
    868c:	e3a00001 	mov	r0, #1
    8690:	eafffff2 	b	8660 <bcm2835_i2c_write+0xc8>
    8694:	e1a03001 	mov	r3, r1
    8698:	eaffffd3 	b	85ec <bcm2835_i2c_write+0x54>
    869c:	20804000 	addcs	r4, r0, r0
    86a0:	00000302 	andeq	r0, r0, r2, lsl #6
    86a4:	00008080 	andeq	r8, r0, r0, lsl #1

000086a8 <bcm2835_i2c_read>:
    86a8:	e59f2100 	ldr	r2, [pc, #256]	; 87b0 <bcm2835_i2c_read+0x108>
    86ac:	e3a03020 	mov	r3, #32
    86b0:	e52d4004 	push	{r4}		; (str r4, [sp, #-4]!)
    86b4:	e5823000 	str	r3, [r2]
    86b8:	e59f30f4 	ldr	r3, [pc, #244]	; 87b4 <bcm2835_i2c_read+0x10c>
    86bc:	e3a04000 	mov	r4, #0
    86c0:	e5823004 	str	r3, [r2, #4]
    86c4:	e5821008 	str	r1, [r2, #8]
    86c8:	e1a03001 	mov	r3, r1
    86cc:	e59f10e4 	ldr	r1, [pc, #228]	; 87b8 <bcm2835_i2c_read+0x110>
    86d0:	e5821000 	str	r1, [r2]
    86d4:	e5921004 	ldr	r1, [r2, #4]
    86d8:	e59fc0d0 	ldr	ip, [pc, #208]	; 87b0 <bcm2835_i2c_read+0x108>
    86dc:	e3110002 	tst	r1, #2
    86e0:	1a00000d 	bne	871c <bcm2835_i2c_read+0x74>
    86e4:	e5921004 	ldr	r1, [r2, #4]
    86e8:	e3110020 	tst	r1, #32
    86ec:	0afffff8 	beq	86d4 <bcm2835_i2c_read+0x2c>
    86f0:	e5921010 	ldr	r1, [r2, #16]
    86f4:	e2433001 	sub	r3, r3, #1
    86f8:	e7c01004 	strb	r1, [r0, r4]
    86fc:	e5921004 	ldr	r1, [r2, #4]
    8700:	e2844001 	add	r4, r4, #1
    8704:	e3110020 	tst	r1, #32
    8708:	1afffff8 	bne	86f0 <bcm2835_i2c_read+0x48>
    870c:	e5921004 	ldr	r1, [r2, #4]
    8710:	e59fc098 	ldr	ip, [pc, #152]	; 87b0 <bcm2835_i2c_read+0x108>
    8714:	e3110002 	tst	r1, #2
    8718:	0afffff1 	beq	86e4 <bcm2835_i2c_read+0x3c>
    871c:	e3530000 	cmp	r3, #0
    8720:	0a00000c 	beq	8758 <bcm2835_i2c_read+0xb0>
    8724:	e59c2004 	ldr	r2, [ip, #4]
    8728:	e3120020 	tst	r2, #32
    872c:	0a00000a 	beq	875c <bcm2835_i2c_read+0xb4>
    8730:	e0800004 	add	r0, r0, r4
    8734:	e1a0200c 	mov	r2, ip
    8738:	ea000002 	b	8748 <bcm2835_i2c_read+0xa0>
    873c:	e5921004 	ldr	r1, [r2, #4]
    8740:	e3110020 	tst	r1, #32
    8744:	0a000004 	beq	875c <bcm2835_i2c_read+0xb4>
    8748:	e5921010 	ldr	r1, [r2, #16]
    874c:	e2533001 	subs	r3, r3, #1
    8750:	e4c01001 	strb	r1, [r0], #1
    8754:	1afffff8 	bne	873c <bcm2835_i2c_read+0x94>
    8758:	e3a03000 	mov	r3, #0
    875c:	e59f204c 	ldr	r2, [pc, #76]	; 87b0 <bcm2835_i2c_read+0x108>
    8760:	e5921004 	ldr	r1, [r2, #4]
    8764:	e3110c01 	tst	r1, #256	; 0x100
    8768:	1a00000c 	bne	87a0 <bcm2835_i2c_read+0xf8>
    876c:	e5922004 	ldr	r2, [r2, #4]
    8770:	e3120c02 	tst	r2, #512	; 0x200
    8774:	13a00002 	movne	r0, #2
    8778:	0a000004 	beq	8790 <bcm2835_i2c_read+0xe8>
    877c:	e59f202c 	ldr	r2, [pc, #44]	; 87b0 <bcm2835_i2c_read+0x108>
    8780:	e3a01002 	mov	r1, #2
    8784:	e5821000 	str	r1, [r2]
    8788:	e8bd0010 	ldmfd	sp!, {r4}
    878c:	e12fff1e 	bx	lr
    8790:	e3530000 	cmp	r3, #0
    8794:	13a00004 	movne	r0, #4
    8798:	03a00000 	moveq	r0, #0
    879c:	eafffff6 	b	877c <bcm2835_i2c_read+0xd4>
    87a0:	e3a03c01 	mov	r3, #256	; 0x100
    87a4:	e5823004 	str	r3, [r2, #4]
    87a8:	e3a00001 	mov	r0, #1
    87ac:	eafffff2 	b	877c <bcm2835_i2c_read+0xd4>
    87b0:	20804000 	addcs	r4, r0, r0
    87b4:	00000302 	andeq	r0, r0, r2, lsl #6
    87b8:	00008081 	andeq	r8, r0, r1, lsl #1

000087bc <led_set>:
    87bc:	e59f3010 	ldr	r3, [pc, #16]	; 87d4 <led_set+0x18>
    87c0:	e3a02801 	mov	r2, #65536	; 0x10000
    87c4:	e3500000 	cmp	r0, #0
    87c8:	0583201c 	streq	r2, [r3, #28]
    87cc:	15832028 	strne	r2, [r3, #40]	; 0x28
    87d0:	e12fff1e 	bx	lr
    87d4:	20200000 	eorcs	r0, r0, r0

000087d8 <led_init>:
    87d8:	e59f3010 	ldr	r3, [pc, #16]	; 87f0 <led_init+0x18>
    87dc:	e5932004 	ldr	r2, [r3, #4]
    87e0:	e3c22707 	bic	r2, r2, #1835008	; 0x1c0000
    87e4:	e3822701 	orr	r2, r2, #262144	; 0x40000
    87e8:	e5832004 	str	r2, [r3, #4]
    87ec:	e12fff1e 	bx	lr
    87f0:	20200000 	eorcs	r0, r0, r0

000087f4 <bcm2835_mailbox_read>:
    87f4:	e59f2020 	ldr	r2, [pc, #32]	; 881c <bcm2835_mailbox_read+0x28>
    87f8:	e5923898 	ldr	r3, [r2, #2200]	; 0x898
    87fc:	e3130101 	tst	r3, #1073741824	; 0x40000000
    8800:	1afffffc 	bne	87f8 <bcm2835_mailbox_read+0x4>
    8804:	e5923880 	ldr	r3, [r2, #2176]	; 0x880
    8808:	e203100f 	and	r1, r3, #15
    880c:	e1510000 	cmp	r1, r0
    8810:	1afffff8 	bne	87f8 <bcm2835_mailbox_read+0x4>
    8814:	e3c3000f 	bic	r0, r3, #15
    8818:	e12fff1e 	bx	lr
    881c:	2000b000 	andcs	fp, r0, r0

00008820 <bcm2835_mailbox_write>:
    8820:	e59f2020 	ldr	r2, [pc, #32]	; 8848 <bcm2835_mailbox_write+0x28>
    8824:	e5923898 	ldr	r3, [r2, #2200]	; 0x898
    8828:	e3530000 	cmp	r3, #0
    882c:	bafffffc 	blt	8824 <bcm2835_mailbox_write+0x4>
    8830:	e200000f 	and	r0, r0, #15
    8834:	e3c1100f 	bic	r1, r1, #15
    8838:	e59f3008 	ldr	r3, [pc, #8]	; 8848 <bcm2835_mailbox_write+0x28>
    883c:	e1800001 	orr	r0, r0, r1
    8840:	e58308a0 	str	r0, [r3, #2208]	; 0x8a0
    8844:	e12fff1e 	bx	lr
    8848:	2000b000 	andcs	fp, r0, r0

0000884c <bcm2835_pl011_begin>:
    884c:	e92d4038 	push	{r3, r4, r5, lr}
    8850:	e59f5080 	ldr	r5, [pc, #128]	; 88d8 <bcm2835_pl011_begin+0x8c>
    8854:	e3a04000 	mov	r4, #0
    8858:	e3a0000e 	mov	r0, #14
    885c:	e3a01004 	mov	r1, #4
    8860:	e5854030 	str	r4, [r5, #48]	; 0x30
    8864:	ebfffe31 	bl	8130 <bcm2835_gpio_fsel>
    8868:	e3a0000f 	mov	r0, #15
    886c:	e3a01004 	mov	r1, #4
    8870:	ebfffe2e 	bl	8130 <bcm2835_gpio_fsel>
    8874:	e3a0000e 	mov	r0, #14
    8878:	e1a01004 	mov	r1, r4
    887c:	ebffff15 	bl	84d8 <bcm2835_gpio_set_pud>
    8880:	e1a01004 	mov	r1, r4
    8884:	e3a0000f 	mov	r0, #15
    8888:	ebffff12 	bl	84d8 <bcm2835_gpio_set_pud>
    888c:	e1a01005 	mov	r1, r5
    8890:	e5913018 	ldr	r3, [r1, #24]
    8894:	e59f203c 	ldr	r2, [pc, #60]	; 88d8 <bcm2835_pl011_begin+0x8c>
    8898:	e3130008 	tst	r3, #8
    889c:	1afffffb 	bne	8890 <bcm2835_pl011_begin+0x44>
    88a0:	e592302c 	ldr	r3, [r2, #44]	; 0x2c
    88a4:	e3c33010 	bic	r3, r3, #16
    88a8:	e582302c 	str	r3, [r2, #44]	; 0x2c
    88ac:	e59f3028 	ldr	r3, [pc, #40]	; 88dc <bcm2835_pl011_begin+0x90>
    88b0:	e5823044 	str	r3, [r2, #68]	; 0x44
    88b4:	e3a03001 	mov	r3, #1
    88b8:	e5823024 	str	r3, [r2, #36]	; 0x24
    88bc:	e3a03028 	mov	r3, #40	; 0x28
    88c0:	e5823028 	str	r3, [r2, #40]	; 0x28
    88c4:	e3a03060 	mov	r3, #96	; 0x60
    88c8:	e582302c 	str	r3, [r2, #44]	; 0x2c
    88cc:	e59f300c 	ldr	r3, [pc, #12]	; 88e0 <bcm2835_pl011_begin+0x94>
    88d0:	e5823030 	str	r3, [r2, #48]	; 0x30
    88d4:	e8bd8038 	pop	{r3, r4, r5, pc}
    88d8:	20201000 	eorcs	r1, r0, r0
    88dc:	000007ff 	strdeq	r0, [r0], -pc	; <UNPREDICTABLE>
    88e0:	00000301 	andeq	r0, r0, r1, lsl #6

000088e4 <bcm2835_pl011_send>:
    88e4:	e59f2014 	ldr	r2, [pc, #20]	; 8900 <bcm2835_pl011_send+0x1c>
    88e8:	e5923018 	ldr	r3, [r2, #24]
    88ec:	e3130020 	tst	r3, #32
    88f0:	1afffffc 	bne	88e8 <bcm2835_pl011_send+0x4>
    88f4:	e59f3004 	ldr	r3, [pc, #4]	; 8900 <bcm2835_pl011_send+0x1c>
    88f8:	e5830000 	str	r0, [r3]
    88fc:	e12fff1e 	bx	lr
    8900:	20201000 	eorcs	r1, r0, r0

00008904 <bcm2835_pl011_dmx512_begin>:
    8904:	e92d4038 	push	{r3, r4, r5, lr}
    8908:	e59f1084 	ldr	r1, [pc, #132]	; 8994 <bcm2835_pl011_dmx512_begin+0x90>
    890c:	e59f5084 	ldr	r5, [pc, #132]	; 8998 <bcm2835_pl011_dmx512_begin+0x94>
    8910:	e3a00002 	mov	r0, #2
    8914:	eb00012a 	bl	8dc4 <bcm2835_vc_set_clock_rate>
    8918:	e3a04000 	mov	r4, #0
    891c:	e59f3078 	ldr	r3, [pc, #120]	; 899c <bcm2835_pl011_dmx512_begin+0x98>
    8920:	e5854030 	str	r4, [r5, #48]	; 0x30
    8924:	e5932004 	ldr	r2, [r3, #4]
    8928:	e3a0000e 	mov	r0, #14
    892c:	e3c22a3f 	bic	r2, r2, #258048	; 0x3f000
    8930:	e3822909 	orr	r2, r2, #147456	; 0x24000
    8934:	e1a01004 	mov	r1, r4
    8938:	e5832004 	str	r2, [r3, #4]
    893c:	ebfffee5 	bl	84d8 <bcm2835_gpio_set_pud>
    8940:	e1a01004 	mov	r1, r4
    8944:	e3a0000f 	mov	r0, #15
    8948:	ebfffee2 	bl	84d8 <bcm2835_gpio_set_pud>
    894c:	e1a01005 	mov	r1, r5
    8950:	e5913018 	ldr	r3, [r1, #24]
    8954:	e59f203c 	ldr	r2, [pc, #60]	; 8998 <bcm2835_pl011_dmx512_begin+0x94>
    8958:	e2133008 	ands	r3, r3, #8
    895c:	1afffffb 	bne	8950 <bcm2835_pl011_dmx512_begin+0x4c>
    8960:	e592102c 	ldr	r1, [r2, #44]	; 0x2c
    8964:	e3c11010 	bic	r1, r1, #16
    8968:	e582102c 	str	r1, [r2, #44]	; 0x2c
    896c:	e59f102c 	ldr	r1, [pc, #44]	; 89a0 <bcm2835_pl011_dmx512_begin+0x9c>
    8970:	e5821044 	str	r1, [r2, #68]	; 0x44
    8974:	e3a01001 	mov	r1, #1
    8978:	e5821024 	str	r1, [r2, #36]	; 0x24
    897c:	e5823028 	str	r3, [r2, #40]	; 0x28
    8980:	e3a03068 	mov	r3, #104	; 0x68
    8984:	e582302c 	str	r3, [r2, #44]	; 0x2c
    8988:	e59f3014 	ldr	r3, [pc, #20]	; 89a4 <bcm2835_pl011_dmx512_begin+0xa0>
    898c:	e5823030 	str	r3, [r2, #48]	; 0x30
    8990:	e8bd8038 	pop	{r3, r4, r5, pc}
    8994:	003d0900 	eorseq	r0, sp, r0, lsl #18
    8998:	20201000 	eorcs	r1, r0, r0
    899c:	20200000 	eorcs	r0, r0, r0
    89a0:	000007ff 	strdeq	r0, [r0], -pc	; <UNPREDICTABLE>
    89a4:	00000301 	andeq	r0, r0, r1, lsl #6

000089a8 <bcm2835_spi_begin>:
    89a8:	e59f2080 	ldr	r2, [pc, #128]	; 8a30 <bcm2835_spi_begin+0x88>
    89ac:	e59f3080 	ldr	r3, [pc, #128]	; 8a34 <bcm2835_spi_begin+0x8c>
    89b0:	e5921000 	ldr	r1, [r2]
    89b4:	e3c115ff 	bic	r1, r1, #1069547520	; 0x3fc00000
    89b8:	e3c11602 	bic	r1, r1, #2097152	; 0x200000
    89bc:	e5821000 	str	r1, [r2]
    89c0:	e5921004 	ldr	r1, [r2, #4]
    89c4:	e3c1103f 	bic	r1, r1, #63	; 0x3f
    89c8:	e5821004 	str	r1, [r2, #4]
    89cc:	e5921000 	ldr	r1, [r2]
    89d0:	e3c115ff 	bic	r1, r1, #1069547520	; 0x3fc00000
    89d4:	e3c11602 	bic	r1, r1, #2097152	; 0x200000
    89d8:	e3811592 	orr	r1, r1, #612368384	; 0x24800000
    89dc:	e5821000 	str	r1, [r2]
    89e0:	e5921004 	ldr	r1, [r2, #4]
    89e4:	e3c1103f 	bic	r1, r1, #63	; 0x3f
    89e8:	e3811024 	orr	r1, r1, #36	; 0x24
    89ec:	e5821004 	str	r1, [r2, #4]
    89f0:	e3a02000 	mov	r2, #0
    89f4:	e5832000 	str	r2, [r3]
    89f8:	e3a02030 	mov	r2, #48	; 0x30
    89fc:	e5832000 	str	r2, [r3]
    8a00:	e5932000 	ldr	r2, [r3]
    8a04:	e3c22602 	bic	r2, r2, #2097152	; 0x200000
    8a08:	e5832000 	str	r2, [r3]
    8a0c:	e5932000 	ldr	r2, [r3]
    8a10:	e3c22501 	bic	r2, r2, #4194304	; 0x400000
    8a14:	e5832000 	str	r2, [r3]
    8a18:	e5932000 	ldr	r2, [r3]
    8a1c:	e3c2200c 	bic	r2, r2, #12
    8a20:	e5832000 	str	r2, [r3]
    8a24:	e59f200c 	ldr	r2, [pc, #12]	; 8a38 <bcm2835_spi_begin+0x90>
    8a28:	e5832008 	str	r2, [r3, #8]
    8a2c:	e12fff1e 	bx	lr
    8a30:	20200000 	eorcs	r0, r0, r0
    8a34:	20204000 	eorcs	r4, r0, r0
    8a38:	000009c4 	andeq	r0, r0, r4, asr #19

00008a3c <bcm2835_spi_end>:
    8a3c:	e59f301c 	ldr	r3, [pc, #28]	; 8a60 <bcm2835_spi_end+0x24>
    8a40:	e5932000 	ldr	r2, [r3]
    8a44:	e3c225ff 	bic	r2, r2, #1069547520	; 0x3fc00000
    8a48:	e3c22602 	bic	r2, r2, #2097152	; 0x200000
    8a4c:	e5832000 	str	r2, [r3]
    8a50:	e5932004 	ldr	r2, [r3, #4]
    8a54:	e3c2203f 	bic	r2, r2, #63	; 0x3f
    8a58:	e5832004 	str	r2, [r3, #4]
    8a5c:	e12fff1e 	bx	lr
    8a60:	20200000 	eorcs	r0, r0, r0

00008a64 <bcm2835_spi_setBitOrder>:
    8a64:	e12fff1e 	bx	lr

00008a68 <bcm2835_spi_setClockDivider>:
    8a68:	e59f3004 	ldr	r3, [pc, #4]	; 8a74 <bcm2835_spi_setClockDivider+0xc>
    8a6c:	e5830008 	str	r0, [r3, #8]
    8a70:	e12fff1e 	bx	lr
    8a74:	20204000 	eorcs	r4, r0, r0

00008a78 <bcm2835_spi_setDataMode>:
    8a78:	e59f3018 	ldr	r3, [pc, #24]	; 8a98 <bcm2835_spi_setDataMode+0x20>
    8a7c:	e1a00100 	lsl	r0, r0, #2
    8a80:	e5931000 	ldr	r1, [r3]
    8a84:	e200200c 	and	r2, r0, #12
    8a88:	e3c1100c 	bic	r1, r1, #12
    8a8c:	e1822001 	orr	r2, r2, r1
    8a90:	e5832000 	str	r2, [r3]
    8a94:	e12fff1e 	bx	lr
    8a98:	20204000 	eorcs	r4, r0, r0

00008a9c <bcm2835_spi_chipSelect>:
    8a9c:	e59f3014 	ldr	r3, [pc, #20]	; 8ab8 <bcm2835_spi_chipSelect+0x1c>
    8aa0:	e2000003 	and	r0, r0, #3
    8aa4:	e5932000 	ldr	r2, [r3]
    8aa8:	e3c22003 	bic	r2, r2, #3
    8aac:	e1800002 	orr	r0, r0, r2
    8ab0:	e5830000 	str	r0, [r3]
    8ab4:	e12fff1e 	bx	lr
    8ab8:	20204000 	eorcs	r4, r0, r0

00008abc <bcm2835_spi_setChipSelectPolarity>:
    8abc:	e2800015 	add	r0, r0, #21
    8ac0:	e6ef0070 	uxtb	r0, r0
    8ac4:	e3a03001 	mov	r3, #1
    8ac8:	e1a03013 	lsl	r3, r3, r0
    8acc:	e0031011 	and	r1, r3, r1, lsl r0
    8ad0:	e59f2010 	ldr	r2, [pc, #16]	; 8ae8 <bcm2835_spi_setChipSelectPolarity+0x2c>
    8ad4:	e5920000 	ldr	r0, [r2]
    8ad8:	e1c03003 	bic	r3, r0, r3
    8adc:	e1833001 	orr	r3, r3, r1
    8ae0:	e5823000 	str	r3, [r2]
    8ae4:	e12fff1e 	bx	lr
    8ae8:	20204000 	eorcs	r4, r0, r0

00008aec <bcm2835_spi_transfernb>:
    8aec:	e59f3090 	ldr	r3, [pc, #144]	; 8b84 <bcm2835_spi_transfernb+0x98>
    8af0:	e52d4004 	push	{r4}		; (str r4, [sp, #-4]!)
    8af4:	e593c000 	ldr	ip, [r3]
    8af8:	e3520000 	cmp	r2, #0
    8afc:	e38cc030 	orr	ip, ip, #48	; 0x30
    8b00:	e583c000 	str	ip, [r3]
    8b04:	e593c000 	ldr	ip, [r3]
    8b08:	e38cc080 	orr	ip, ip, #128	; 0x80
    8b0c:	e583c000 	str	ip, [r3]
    8b10:	0a000011 	beq	8b5c <bcm2835_spi_transfernb+0x70>
    8b14:	e3a04000 	mov	r4, #0
    8b18:	e593c000 	ldr	ip, [r3]
    8b1c:	e31c0701 	tst	ip, #262144	; 0x40000
    8b20:	0afffffc 	beq	8b18 <bcm2835_spi_transfernb+0x2c>
    8b24:	e3500000 	cmp	r0, #0
    8b28:	17d0c004 	ldrbne	ip, [r0, r4]
    8b2c:	05830004 	streq	r0, [r3, #4]
    8b30:	1583c004 	strne	ip, [r3, #4]
    8b34:	e593c000 	ldr	ip, [r3]
    8b38:	e31c0802 	tst	ip, #131072	; 0x20000
    8b3c:	0afffffc 	beq	8b34 <bcm2835_spi_transfernb+0x48>
    8b40:	e3510000 	cmp	r1, #0
    8b44:	159fc038 	ldrne	ip, [pc, #56]	; 8b84 <bcm2835_spi_transfernb+0x98>
    8b48:	159cc004 	ldrne	ip, [ip, #4]
    8b4c:	17c1c004 	strbne	ip, [r1, r4]
    8b50:	e2844001 	add	r4, r4, #1
    8b54:	e1540002 	cmp	r4, r2
    8b58:	1affffee 	bne	8b18 <bcm2835_spi_transfernb+0x2c>
    8b5c:	e59f1020 	ldr	r1, [pc, #32]	; 8b84 <bcm2835_spi_transfernb+0x98>
    8b60:	e5913000 	ldr	r3, [r1]
    8b64:	e59f2018 	ldr	r2, [pc, #24]	; 8b84 <bcm2835_spi_transfernb+0x98>
    8b68:	e3130801 	tst	r3, #65536	; 0x10000
    8b6c:	0afffffb 	beq	8b60 <bcm2835_spi_transfernb+0x74>
    8b70:	e5923000 	ldr	r3, [r2]
    8b74:	e3c33080 	bic	r3, r3, #128	; 0x80
    8b78:	e5823000 	str	r3, [r2]
    8b7c:	e8bd0010 	ldmfd	sp!, {r4}
    8b80:	e12fff1e 	bx	lr
    8b84:	20204000 	eorcs	r4, r0, r0

00008b88 <bcm2835_spi_transfern>:
    8b88:	e59f3088 	ldr	r3, [pc, #136]	; 8c18 <bcm2835_spi_transfern+0x90>
    8b8c:	e3510000 	cmp	r1, #0
    8b90:	e5932000 	ldr	r2, [r3]
    8b94:	e3822030 	orr	r2, r2, #48	; 0x30
    8b98:	e5832000 	str	r2, [r3]
    8b9c:	e5932000 	ldr	r2, [r3]
    8ba0:	e3822080 	orr	r2, r2, #128	; 0x80
    8ba4:	e5832000 	str	r2, [r3]
    8ba8:	0a000011 	beq	8bf4 <bcm2835_spi_transfern+0x6c>
    8bac:	e3a0c000 	mov	ip, #0
    8bb0:	e5932000 	ldr	r2, [r3]
    8bb4:	e3120701 	tst	r2, #262144	; 0x40000
    8bb8:	0afffffc 	beq	8bb0 <bcm2835_spi_transfern+0x28>
    8bbc:	e3500000 	cmp	r0, #0
    8bc0:	17d0200c 	ldrbne	r2, [r0, ip]
    8bc4:	05830004 	streq	r0, [r3, #4]
    8bc8:	15832004 	strne	r2, [r3, #4]
    8bcc:	e5932000 	ldr	r2, [r3]
    8bd0:	e3120802 	tst	r2, #131072	; 0x20000
    8bd4:	0afffffc 	beq	8bcc <bcm2835_spi_transfern+0x44>
    8bd8:	e3500000 	cmp	r0, #0
    8bdc:	159f2034 	ldrne	r2, [pc, #52]	; 8c18 <bcm2835_spi_transfern+0x90>
    8be0:	15922004 	ldrne	r2, [r2, #4]
    8be4:	17c0200c 	strbne	r2, [r0, ip]
    8be8:	e28cc001 	add	ip, ip, #1
    8bec:	e15c0001 	cmp	ip, r1
    8bf0:	1affffee 	bne	8bb0 <bcm2835_spi_transfern+0x28>
    8bf4:	e59f101c 	ldr	r1, [pc, #28]	; 8c18 <bcm2835_spi_transfern+0x90>
    8bf8:	e5913000 	ldr	r3, [r1]
    8bfc:	e59f2014 	ldr	r2, [pc, #20]	; 8c18 <bcm2835_spi_transfern+0x90>
    8c00:	e3130801 	tst	r3, #65536	; 0x10000
    8c04:	0afffffb 	beq	8bf8 <bcm2835_spi_transfern+0x70>
    8c08:	e5923000 	ldr	r3, [r2]
    8c0c:	e3c33080 	bic	r3, r3, #128	; 0x80
    8c10:	e5823000 	str	r3, [r2]
    8c14:	e12fff1e 	bx	lr
    8c18:	20204000 	eorcs	r4, r0, r0

00008c1c <bcm2835_spi_writenb>:
    8c1c:	e59f2060 	ldr	r2, [pc, #96]	; 8c84 <bcm2835_spi_writenb+0x68>
    8c20:	e3510000 	cmp	r1, #0
    8c24:	e5923000 	ldr	r3, [r2]
    8c28:	e3833030 	orr	r3, r3, #48	; 0x30
    8c2c:	e5823000 	str	r3, [r2]
    8c30:	e5923000 	ldr	r3, [r2]
    8c34:	e3833080 	orr	r3, r3, #128	; 0x80
    8c38:	e5823000 	str	r3, [r2]
    8c3c:	0a000007 	beq	8c60 <bcm2835_spi_writenb+0x44>
    8c40:	e0801001 	add	r1, r0, r1
    8c44:	e5923000 	ldr	r3, [r2]
    8c48:	e3130701 	tst	r3, #262144	; 0x40000
    8c4c:	0afffffc 	beq	8c44 <bcm2835_spi_writenb+0x28>
    8c50:	e4d03001 	ldrb	r3, [r0], #1
    8c54:	e1500001 	cmp	r0, r1
    8c58:	e5823004 	str	r3, [r2, #4]
    8c5c:	1afffff8 	bne	8c44 <bcm2835_spi_writenb+0x28>
    8c60:	e59f101c 	ldr	r1, [pc, #28]	; 8c84 <bcm2835_spi_writenb+0x68>
    8c64:	e5913000 	ldr	r3, [r1]
    8c68:	e59f2014 	ldr	r2, [pc, #20]	; 8c84 <bcm2835_spi_writenb+0x68>
    8c6c:	e3130801 	tst	r3, #65536	; 0x10000
    8c70:	0afffffb 	beq	8c64 <bcm2835_spi_writenb+0x48>
    8c74:	e5923000 	ldr	r3, [r2]
    8c78:	e3c33080 	bic	r3, r3, #128	; 0x80
    8c7c:	e5823000 	str	r3, [r2]
    8c80:	e12fff1e 	bx	lr
    8c84:	20204000 	eorcs	r4, r0, r0

00008c88 <bcm2835_uart_begin>:
    8c88:	e92d4070 	push	{r4, r5, r6, lr}
    8c8c:	e59f4064 	ldr	r4, [pc, #100]	; 8cf8 <bcm2835_uart_begin+0x70>
    8c90:	e3a02001 	mov	r2, #1
    8c94:	e5842004 	str	r2, [r4, #4]
    8c98:	e3a05000 	mov	r5, #0
    8c9c:	e3a06003 	mov	r6, #3
    8ca0:	e3a02005 	mov	r2, #5
    8ca4:	e5845060 	str	r5, [r4, #96]	; 0x60
    8ca8:	e584604c 	str	r6, [r4, #76]	; 0x4c
    8cac:	e5845050 	str	r5, [r4, #80]	; 0x50
    8cb0:	e5842044 	str	r2, [r4, #68]	; 0x44
    8cb4:	e3a020c6 	mov	r2, #198	; 0xc6
    8cb8:	e5842048 	str	r2, [r4, #72]	; 0x48
    8cbc:	e59f3038 	ldr	r3, [pc, #56]	; 8cfc <bcm2835_uart_begin+0x74>
    8cc0:	e2822048 	add	r2, r2, #72	; 0x48
    8cc4:	e5842068 	str	r2, [r4, #104]	; 0x68
    8cc8:	e5932004 	ldr	r2, [r3, #4]
    8ccc:	e3a0000e 	mov	r0, #14
    8cd0:	e3c22a3f 	bic	r2, r2, #258048	; 0x3f000
    8cd4:	e3822a12 	orr	r2, r2, #73728	; 0x12000
    8cd8:	e1a01005 	mov	r1, r5
    8cdc:	e5832004 	str	r2, [r3, #4]
    8ce0:	ebfffdfc 	bl	84d8 <bcm2835_gpio_set_pud>
    8ce4:	e3a0000f 	mov	r0, #15
    8ce8:	e1a01005 	mov	r1, r5
    8cec:	ebfffdf9 	bl	84d8 <bcm2835_gpio_set_pud>
    8cf0:	e5846060 	str	r6, [r4, #96]	; 0x60
    8cf4:	e8bd8070 	pop	{r4, r5, r6, pc}
    8cf8:	20215000 	eorcs	r5, r1, r0
    8cfc:	20200000 	eorcs	r0, r0, r0

00008d00 <bcm2835_uart_send>:
    8d00:	e59f2014 	ldr	r2, [pc, #20]	; 8d1c <bcm2835_uart_send+0x1c>
    8d04:	e5923054 	ldr	r3, [r2, #84]	; 0x54
    8d08:	e3130020 	tst	r3, #32
    8d0c:	0afffffc 	beq	8d04 <bcm2835_uart_send+0x4>
    8d10:	e59f3004 	ldr	r3, [pc, #4]	; 8d1c <bcm2835_uart_send+0x1c>
    8d14:	e5830040 	str	r0, [r3, #64]	; 0x40
    8d18:	e12fff1e 	bx	lr
    8d1c:	20215000 	eorcs	r5, r1, r0

00008d20 <bcm2835_uart_receive>:
    8d20:	e59f2014 	ldr	r2, [pc, #20]	; 8d3c <bcm2835_uart_receive+0x1c>
    8d24:	e5923054 	ldr	r3, [r2, #84]	; 0x54
    8d28:	e3130001 	tst	r3, #1
    8d2c:	0afffffc 	beq	8d24 <bcm2835_uart_receive+0x4>
    8d30:	e59f3004 	ldr	r3, [pc, #4]	; 8d3c <bcm2835_uart_receive+0x1c>
    8d34:	e5930040 	ldr	r0, [r3, #64]	; 0x40
    8d38:	e12fff1e 	bx	lr
    8d3c:	20215000 	eorcs	r5, r1, r0

00008d40 <bcm2835_vc_get_clock_rate>:
    8d40:	e92d4070 	push	{r4, r5, r6, lr}
    8d44:	e59f4070 	ldr	r4, [pc, #112]	; 8dbc <bcm2835_vc_get_clock_rate+0x7c>
    8d48:	e3a02020 	mov	r2, #32
    8d4c:	e5842000 	str	r2, [r4]
    8d50:	e59f2068 	ldr	r2, [pc, #104]	; 8dc0 <bcm2835_vc_get_clock_rate+0x80>
    8d54:	e3a03000 	mov	r3, #0
    8d58:	e5843004 	str	r3, [r4, #4]
    8d5c:	e3a05008 	mov	r5, #8
    8d60:	e5842008 	str	r2, [r4, #8]
    8d64:	e1a06000 	mov	r6, r0
    8d68:	e3a02004 	mov	r2, #4
    8d6c:	e584500c 	str	r5, [r4, #12]
    8d70:	e1a01004 	mov	r1, r4
    8d74:	e5842010 	str	r2, [r4, #16]
    8d78:	e1a00005 	mov	r0, r5
    8d7c:	e5846014 	str	r6, [r4, #20]
    8d80:	e5843018 	str	r3, [r4, #24]
    8d84:	e584301c 	str	r3, [r4, #28]
    8d88:	ebfffea4 	bl	8820 <bcm2835_mailbox_write>
    8d8c:	e1a00005 	mov	r0, r5
    8d90:	ebfffe97 	bl	87f4 <bcm2835_mailbox_read>
    8d94:	e5943004 	ldr	r3, [r4, #4]
    8d98:	e3530102 	cmp	r3, #-2147483648	; 0x80000000
    8d9c:	1a000004 	bne	8db4 <bcm2835_vc_get_clock_rate+0x74>
    8da0:	e5943014 	ldr	r3, [r4, #20]
    8da4:	e1560003 	cmp	r6, r3
    8da8:	1a000001 	bne	8db4 <bcm2835_vc_get_clock_rate+0x74>
    8dac:	e5940018 	ldr	r0, [r4, #24]
    8db0:	e8bd8070 	pop	{r4, r5, r6, pc}
    8db4:	e3e00000 	mvn	r0, #0
    8db8:	e8bd8070 	pop	{r4, r5, r6, pc}
    8dbc:	40007000 	andmi	r7, r0, r0
    8dc0:	00030002 	andeq	r0, r3, r2

00008dc4 <bcm2835_vc_set_clock_rate>:
    8dc4:	e92d4070 	push	{r4, r5, r6, lr}
    8dc8:	e59f4070 	ldr	r4, [pc, #112]	; 8e40 <bcm2835_vc_set_clock_rate+0x7c>
    8dcc:	e3a0c020 	mov	ip, #32
    8dd0:	e584c000 	str	ip, [r4]
    8dd4:	e59fc068 	ldr	ip, [pc, #104]	; 8e44 <bcm2835_vc_set_clock_rate+0x80>
    8dd8:	e3a03000 	mov	r3, #0
    8ddc:	e3a05008 	mov	r5, #8
    8de0:	e1a02001 	mov	r2, r1
    8de4:	e1a06000 	mov	r6, r0
    8de8:	e5843004 	str	r3, [r4, #4]
    8dec:	e1a01004 	mov	r1, r4
    8df0:	e584c008 	str	ip, [r4, #8]
    8df4:	e1a00005 	mov	r0, r5
    8df8:	e584500c 	str	r5, [r4, #12]
    8dfc:	e5845010 	str	r5, [r4, #16]
    8e00:	e5846014 	str	r6, [r4, #20]
    8e04:	e5842018 	str	r2, [r4, #24]
    8e08:	e584301c 	str	r3, [r4, #28]
    8e0c:	ebfffe83 	bl	8820 <bcm2835_mailbox_write>
    8e10:	e1a00005 	mov	r0, r5
    8e14:	ebfffe76 	bl	87f4 <bcm2835_mailbox_read>
    8e18:	e5943004 	ldr	r3, [r4, #4]
    8e1c:	e3530102 	cmp	r3, #-2147483648	; 0x80000000
    8e20:	1a000004 	bne	8e38 <bcm2835_vc_set_clock_rate+0x74>
    8e24:	e5943014 	ldr	r3, [r4, #20]
    8e28:	e1560003 	cmp	r6, r3
    8e2c:	1a000001 	bne	8e38 <bcm2835_vc_set_clock_rate+0x74>
    8e30:	e5940018 	ldr	r0, [r4, #24]
    8e34:	e8bd8070 	pop	{r4, r5, r6, pc}
    8e38:	e3e00000 	mvn	r0, #0
    8e3c:	e8bd8070 	pop	{r4, r5, r6, pc}
    8e40:	40007000 	andmi	r7, r0, r0
    8e44:	00038002 	andeq	r8, r3, r2

00008e48 <bcm2835_vc_get_power_state>:
    8e48:	e92d4070 	push	{r4, r5, r6, lr}
    8e4c:	e59f4074 	ldr	r4, [pc, #116]	; 8ec8 <bcm2835_vc_get_power_state+0x80>
    8e50:	e3a02020 	mov	r2, #32
    8e54:	e5842000 	str	r2, [r4]
    8e58:	e59f206c 	ldr	r2, [pc, #108]	; 8ecc <bcm2835_vc_get_power_state+0x84>
    8e5c:	e3a03000 	mov	r3, #0
    8e60:	e5843004 	str	r3, [r4, #4]
    8e64:	e3a05008 	mov	r5, #8
    8e68:	e5842008 	str	r2, [r4, #8]
    8e6c:	e1a06000 	mov	r6, r0
    8e70:	e3a02004 	mov	r2, #4
    8e74:	e584500c 	str	r5, [r4, #12]
    8e78:	e1a01004 	mov	r1, r4
    8e7c:	e5842010 	str	r2, [r4, #16]
    8e80:	e1a00005 	mov	r0, r5
    8e84:	e5846014 	str	r6, [r4, #20]
    8e88:	e5843018 	str	r3, [r4, #24]
    8e8c:	e584301c 	str	r3, [r4, #28]
    8e90:	ebfffe62 	bl	8820 <bcm2835_mailbox_write>
    8e94:	e1a00005 	mov	r0, r5
    8e98:	ebfffe55 	bl	87f4 <bcm2835_mailbox_read>
    8e9c:	e5943004 	ldr	r3, [r4, #4]
    8ea0:	e3530102 	cmp	r3, #-2147483648	; 0x80000000
    8ea4:	1a000005 	bne	8ec0 <bcm2835_vc_get_power_state+0x78>
    8ea8:	e5943014 	ldr	r3, [r4, #20]
    8eac:	e1560003 	cmp	r6, r3
    8eb0:	1a000002 	bne	8ec0 <bcm2835_vc_get_power_state+0x78>
    8eb4:	e5940018 	ldr	r0, [r4, #24]
    8eb8:	e2000003 	and	r0, r0, #3
    8ebc:	e8bd8070 	pop	{r4, r5, r6, pc}
    8ec0:	e3a00003 	mov	r0, #3
    8ec4:	e8bd8070 	pop	{r4, r5, r6, pc}
    8ec8:	40007000 	andmi	r7, r0, r0
    8ecc:	00020001 	andeq	r0, r2, r1

00008ed0 <bcm2835_vc_set_power_state>:
    8ed0:	e92d4070 	push	{r4, r5, r6, lr}
    8ed4:	e59f4070 	ldr	r4, [pc, #112]	; 8f4c <bcm2835_vc_set_power_state+0x7c>
    8ed8:	e3a0c020 	mov	ip, #32
    8edc:	e584c000 	str	ip, [r4]
    8ee0:	e59fc068 	ldr	ip, [pc, #104]	; 8f50 <bcm2835_vc_set_power_state+0x80>
    8ee4:	e3a03000 	mov	r3, #0
    8ee8:	e3a05008 	mov	r5, #8
    8eec:	e1a02001 	mov	r2, r1
    8ef0:	e1a06000 	mov	r6, r0
    8ef4:	e5843004 	str	r3, [r4, #4]
    8ef8:	e1a01004 	mov	r1, r4
    8efc:	e584c008 	str	ip, [r4, #8]
    8f00:	e1a00005 	mov	r0, r5
    8f04:	e584500c 	str	r5, [r4, #12]
    8f08:	e5845010 	str	r5, [r4, #16]
    8f0c:	e5846014 	str	r6, [r4, #20]
    8f10:	e5842018 	str	r2, [r4, #24]
    8f14:	e584301c 	str	r3, [r4, #28]
    8f18:	ebfffe40 	bl	8820 <bcm2835_mailbox_write>
    8f1c:	e1a00005 	mov	r0, r5
    8f20:	ebfffe33 	bl	87f4 <bcm2835_mailbox_read>
    8f24:	e5943004 	ldr	r3, [r4, #4]
    8f28:	e3530102 	cmp	r3, #-2147483648	; 0x80000000
    8f2c:	1a000004 	bne	8f44 <bcm2835_vc_set_power_state+0x74>
    8f30:	e5943014 	ldr	r3, [r4, #20]
    8f34:	e1560003 	cmp	r6, r3
    8f38:	1a000001 	bne	8f44 <bcm2835_vc_set_power_state+0x74>
    8f3c:	e5940018 	ldr	r0, [r4, #24]
    8f40:	e8bd8070 	pop	{r4, r5, r6, pc}
    8f44:	e3e00000 	mvn	r0, #0
    8f48:	e8bd8070 	pop	{r4, r5, r6, pc}
    8f4c:	40007000 	andmi	r7, r0, r0
    8f50:	00028001 	andeq	r8, r2, r1

00008f54 <watchdog_stop>:
    8f54:	e59f2008 	ldr	r2, [pc, #8]	; 8f64 <watchdog_stop+0x10>
    8f58:	e59f3008 	ldr	r3, [pc, #8]	; 8f68 <watchdog_stop+0x14>
    8f5c:	e583201c 	str	r2, [r3, #28]
    8f60:	e12fff1e 	bx	lr
    8f64:	5a000102 	bpl	9374 <console_putc+0x18>
    8f68:	20100000 	andscs	r0, r0, r0

00008f6c <watchdog_init>:
    8f6c:	e59f3020 	ldr	r3, [pc, #32]	; 8f94 <watchdog_init+0x28>
    8f70:	e59f2020 	ldr	r2, [pc, #32]	; 8f98 <watchdog_init+0x2c>
    8f74:	e5832024 	str	r2, [r3, #36]	; 0x24
    8f78:	e593201c 	ldr	r2, [r3, #28]
    8f7c:	e3c2245a 	bic	r2, r2, #1509949440	; 0x5a000000
    8f80:	e3c22030 	bic	r2, r2, #48	; 0x30
    8f84:	e382245a 	orr	r2, r2, #1509949440	; 0x5a000000
    8f88:	e3822020 	orr	r2, r2, #32
    8f8c:	e583201c 	str	r2, [r3, #28]
    8f90:	e12fff1e 	bx	lr
    8f94:	20100000 	andscs	r0, r0, r0
    8f98:	5a00ffff 	bpl	48f9c <heap_low+0x3bde4>

00008f9c <watchdog_feed>:
    8f9c:	e59f3020 	ldr	r3, [pc, #32]	; 8fc4 <watchdog_feed+0x28>
    8fa0:	e59f2020 	ldr	r2, [pc, #32]	; 8fc8 <watchdog_feed+0x2c>
    8fa4:	e5832024 	str	r2, [r3, #36]	; 0x24
    8fa8:	e593201c 	ldr	r2, [r3, #28]
    8fac:	e3c2245a 	bic	r2, r2, #1509949440	; 0x5a000000
    8fb0:	e3c22030 	bic	r2, r2, #48	; 0x30
    8fb4:	e382245a 	orr	r2, r2, #1509949440	; 0x5a000000
    8fb8:	e3822020 	orr	r2, r2, #32
    8fbc:	e583201c 	str	r2, [r3, #28]
    8fc0:	e12fff1e 	bx	lr
    8fc4:	20100000 	andscs	r0, r0, r0
    8fc8:	5a00ffff 	bpl	48fcc <heap_low+0x3be14>

00008fcc <initialise_monitor_handles>:
    8fcc:	e12fff1e 	bx	lr

00008fd0 <_read>:
    8fd0:	e1a00002 	mov	r0, r2
    8fd4:	e12fff1e 	bx	lr

00008fd8 <_lseek>:
    8fd8:	e3a00000 	mov	r0, #0
    8fdc:	e12fff1e 	bx	lr

00008fe0 <_write>:
    8fe0:	e92d4070 	push	{r4, r5, r6, lr}
    8fe4:	e2526000 	subs	r6, r2, #0
    8fe8:	da000005 	ble	9004 <_write+0x24>
    8fec:	e1a04001 	mov	r4, r1
    8ff0:	e0815006 	add	r5, r1, r6
    8ff4:	e4d40001 	ldrb	r0, [r4], #1
    8ff8:	eb0000d7 	bl	935c <console_putc>
    8ffc:	e1540005 	cmp	r4, r5
    9000:	1afffffb 	bne	8ff4 <_write+0x14>
    9004:	e1a00006 	mov	r0, r6
    9008:	e8bd8070 	pop	{r4, r5, r6, pc}

0000900c <_open>:
    900c:	e92d000e 	push	{r1, r2, r3}
    9010:	e3a00000 	mov	r0, #0
    9014:	e28dd00c 	add	sp, sp, #12
    9018:	e12fff1e 	bx	lr

0000901c <_close>:
    901c:	e3a00000 	mov	r0, #0
    9020:	e12fff1e 	bx	lr

00009024 <_exit>:
    9024:	eafffffe 	b	9024 <_exit>

00009028 <_kill>:
    9028:	e3a00000 	mov	r0, #0
    902c:	e12fff1e 	bx	lr

00009030 <_getpid>:
    9030:	e3a00001 	mov	r0, #1
    9034:	e12fff1e 	bx	lr

00009038 <_sbrk>:
    9038:	e59f2028 	ldr	r2, [pc, #40]	; 9068 <_sbrk+0x30>
    903c:	e59f1028 	ldr	r1, [pc, #40]	; 906c <_sbrk+0x34>
    9040:	e5923000 	ldr	r3, [r2]
    9044:	e3530000 	cmp	r3, #0
    9048:	059f3020 	ldreq	r3, [pc, #32]	; 9070 <_sbrk+0x38>
    904c:	e0830000 	add	r0, r3, r0
    9050:	05823000 	streq	r3, [r2]
    9054:	e1500001 	cmp	r0, r1
    9058:	83a03000 	movhi	r3, #0
    905c:	95820000 	strls	r0, [r2]
    9060:	e1a00003 	mov	r0, r3
    9064:	e12fff1e 	bx	lr
    9068:	0000b970 	andeq	fp, r0, r0, ror r9
    906c:	08000000 	stmdaeq	r0, {}	; <UNPREDICTABLE>
    9070:	0000d1b8 			; <UNDEFINED> instruction: 0x0000d1b8

00009074 <_fstat>:
    9074:	e3a00000 	mov	r0, #0
    9078:	e12fff1e 	bx	lr

0000907c <_stat>:
    907c:	e3a00000 	mov	r0, #0
    9080:	e12fff1e 	bx	lr

00009084 <_link>:
    9084:	e3e00000 	mvn	r0, #0
    9088:	e12fff1e 	bx	lr

0000908c <_unlink>:
    908c:	e3e00000 	mvn	r0, #0
    9090:	e12fff1e 	bx	lr

00009094 <_raise>:
    9094:	e12fff1e 	bx	lr

00009098 <_gettimeofday>:
    9098:	e3500000 	cmp	r0, #0
    909c:	13a03000 	movne	r3, #0
    90a0:	13a0200a 	movne	r2, #10
    90a4:	1880000c 	stmne	r0, {r2, r3}
    90a8:	e3510000 	cmp	r1, #0
    90ac:	13a03000 	movne	r3, #0
    90b0:	15813000 	strne	r3, [r1]
    90b4:	15813004 	strne	r3, [r1, #4]
    90b8:	e3a00000 	mov	r0, #0
    90bc:	e12fff1e 	bx	lr

000090c0 <_times>:
    90c0:	e3500000 	cmp	r0, #0
    90c4:	13a03000 	movne	r3, #0
    90c8:	13a0200a 	movne	r2, #10
    90cc:	1880000c 	stmne	r0, {r2, r3}
    90d0:	15803008 	strne	r3, [r0, #8]
    90d4:	1580300c 	strne	r3, [r0, #12]
    90d8:	e3a0000a 	mov	r0, #10
    90dc:	e12fff1e 	bx	lr

000090e0 <_isatty>:
    90e0:	e3a00001 	mov	r0, #1
    90e4:	e12fff1e 	bx	lr

000090e8 <_system>:
    90e8:	e3500000 	cmp	r0, #0
    90ec:	e92d4008 	push	{r3, lr}
    90f0:	08bd8008 	popeq	{r3, pc}
    90f4:	eb000241 	bl	9a00 <__errno>
    90f8:	e3a03058 	mov	r3, #88	; 0x58
    90fc:	e5803000 	str	r3, [r0]
    9100:	e3e00000 	mvn	r0, #0
    9104:	e8bd8008 	pop	{r3, pc}

00009108 <_rename>:
    9108:	e92d4008 	push	{r3, lr}
    910c:	eb00023b 	bl	9a00 <__errno>
    9110:	e3a03058 	mov	r3, #88	; 0x58
    9114:	e5803000 	str	r3, [r0]
    9118:	e3e00000 	mvn	r0, #0
    911c:	e8bd8008 	pop	{r3, pc}

00009120 <sys_time_init>:
    9120:	e92d4010 	push	{r4, lr}
    9124:	e59f3070 	ldr	r3, [pc, #112]	; 919c <sys_time_init+0x7c>
    9128:	e59f4070 	ldr	r4, [pc, #112]	; 91a0 <sys_time_init+0x80>
    912c:	e24dd048 	sub	sp, sp, #72	; 0x48
    9130:	e3a00000 	mov	r0, #0
    9134:	e1c320d4 	ldrd	r2, [r3, #4]
    9138:	e1c420f0 	strd	r2, [r4]
    913c:	eb00018a 	bl	976c <mcp7941x_start>
    9140:	e1a0000d 	mov	r0, sp
    9144:	eb000193 	bl	9798 <mcp7941x_get_date_time>
    9148:	e59d3008 	ldr	r3, [sp, #8]
    914c:	e28d0024 	add	r0, sp, #36	; 0x24
    9150:	e58d302c 	str	r3, [sp, #44]	; 0x2c
    9154:	e59d3004 	ldr	r3, [sp, #4]
    9158:	e58d3028 	str	r3, [sp, #40]	; 0x28
    915c:	e59d3000 	ldr	r3, [sp]
    9160:	e58d3024 	str	r3, [sp, #36]	; 0x24
    9164:	e59d300c 	ldr	r3, [sp, #12]
    9168:	e58d3030 	str	r3, [sp, #48]	; 0x30
    916c:	e59d3018 	ldr	r3, [sp, #24]
    9170:	e58d303c 	str	r3, [sp, #60]	; 0x3c
    9174:	e59d3010 	ldr	r3, [sp, #16]
    9178:	e58d3034 	str	r3, [sp, #52]	; 0x34
    917c:	e59d3014 	ldr	r3, [sp, #20]
    9180:	e58d3038 	str	r3, [sp, #56]	; 0x38
    9184:	e3a03000 	mov	r3, #0
    9188:	e58d3044 	str	r3, [sp, #68]	; 0x44
    918c:	eb000373 	bl	9f60 <mktime>
    9190:	e5840008 	str	r0, [r4, #8]
    9194:	e28dd048 	add	sp, sp, #72	; 0x48
    9198:	e8bd8010 	pop	{r4, pc}
    919c:	20003000 	andcs	r3, r0, r0
    91a0:	0000b978 	andeq	fp, r0, r8, ror r9

000091a4 <sys_time>:
    91a4:	e59f1038 	ldr	r1, [pc, #56]	; 91e4 <sys_time+0x40>
    91a8:	e59f3038 	ldr	r3, [pc, #56]	; 91e8 <sys_time+0x44>
    91ac:	e59fc038 	ldr	ip, [pc, #56]	; 91ec <sys_time+0x48>
    91b0:	e1c320d4 	ldrd	r2, [r3, #4]
    91b4:	e92d0030 	push	{r4, r5}
    91b8:	e1c140d0 	ldrd	r4, [r1]
    91bc:	e0522004 	subs	r2, r2, r4
    91c0:	e0c33005 	sbc	r3, r3, r5
    91c4:	e0854c92 	umull	r4, r5, r2, ip
    91c8:	e025539c 	mla	r5, ip, r3, r5
    91cc:	e5913008 	ldr	r3, [r1, #8]
    91d0:	e2502000 	subs	r2, r0, #0
    91d4:	e0830925 	add	r0, r3, r5, lsr #18
    91d8:	15820000 	strne	r0, [r2]
    91dc:	e8bd0030 	pop	{r4, r5}
    91e0:	e12fff1e 	bx	lr
    91e4:	0000b978 	andeq	fp, r0, r8, ror r9
    91e8:	20003000 	andcs	r3, r0, r0
    91ec:	431bde83 	tstmi	fp, #2096	; 0x830

000091f0 <console_draw_char>:
    91f0:	e92d0ff0 	push	{r4, r5, r6, r7, r8, r9, sl, fp}
    91f4:	e24dd008 	sub	sp, sp, #8
    91f8:	e58d0004 	str	r0, [sp, #4]
    91fc:	e0822082 	add	r2, r2, r2, lsl #1
    9200:	e59d8004 	ldr	r8, [sp, #4]
    9204:	e1a0c302 	lsl	ip, r2, #6
    9208:	e1a01181 	lsl	r1, r1, #3
    920c:	e04cc102 	sub	ip, ip, r2, lsl #2
    9210:	e0888088 	add	r8, r8, r8, lsl #1
    9214:	e59f2138 	ldr	r2, [pc, #312]	; 9354 <console_draw_char+0x164>
    9218:	e1a0b28c 	lsl	fp, ip, #5
    921c:	e281a007 	add	sl, r1, #7
    9220:	e2817006 	add	r7, r1, #6
    9224:	e2816005 	add	r6, r1, #5
    9228:	e2815004 	add	r5, r1, #4
    922c:	e2814003 	add	r4, r1, #3
    9230:	e281c002 	add	ip, r1, #2
    9234:	e2810001 	add	r0, r1, #1
    9238:	e58d8000 	str	r8, [sp]
    923c:	e5922000 	ldr	r2, [r2]
    9240:	e081800b 	add	r8, r1, fp
    9244:	e08ba00a 	add	sl, fp, sl
    9248:	e08b7007 	add	r7, fp, r7
    924c:	e08b6006 	add	r6, fp, r6
    9250:	e08b5005 	add	r5, fp, r5
    9254:	e08b4004 	add	r4, fp, r4
    9258:	e08bc00c 	add	ip, fp, ip
    925c:	e08b0000 	add	r0, fp, r0
    9260:	e59d9000 	ldr	r9, [sp]
    9264:	e59fb0ec 	ldr	fp, [pc, #236]	; 9358 <console_draw_char+0x168>
    9268:	e1dd12b8 	ldrh	r1, [sp, #40]	; 0x28
    926c:	e082a08a 	add	sl, r2, sl, lsl #1
    9270:	e0828088 	add	r8, r2, r8, lsl #1
    9274:	e0827087 	add	r7, r2, r7, lsl #1
    9278:	e0826086 	add	r6, r2, r6, lsl #1
    927c:	e0825085 	add	r5, r2, r5, lsl #1
    9280:	e0824084 	add	r4, r2, r4, lsl #1
    9284:	e082c08c 	add	ip, r2, ip, lsl #1
    9288:	e0820080 	add	r0, r2, r0, lsl #1
    928c:	e08bb109 	add	fp, fp, r9, lsl #2
    9290:	e3a02000 	mov	r2, #0
    9294:	e7db9002 	ldrb	r9, [fp, r2]
    9298:	e2822001 	add	r2, r2, #1
    929c:	e3190001 	tst	r9, #1
    92a0:	e1a090a9 	lsr	r9, r9, #1
    92a4:	01c810b0 	strheq	r1, [r8]
    92a8:	11c830b0 	strhne	r3, [r8]
    92ac:	e3190001 	tst	r9, #1
    92b0:	e1a090a9 	lsr	r9, r9, #1
    92b4:	01c010b0 	strheq	r1, [r0]
    92b8:	11c030b0 	strhne	r3, [r0]
    92bc:	e3190001 	tst	r9, #1
    92c0:	e1a090a9 	lsr	r9, r9, #1
    92c4:	01cc10b0 	strheq	r1, [ip]
    92c8:	11cc30b0 	strhne	r3, [ip]
    92cc:	e3190001 	tst	r9, #1
    92d0:	e1a090a9 	lsr	r9, r9, #1
    92d4:	01c410b0 	strheq	r1, [r4]
    92d8:	11c430b0 	strhne	r3, [r4]
    92dc:	e3190001 	tst	r9, #1
    92e0:	e1a090a9 	lsr	r9, r9, #1
    92e4:	01c510b0 	strheq	r1, [r5]
    92e8:	11c530b0 	strhne	r3, [r5]
    92ec:	e3190001 	tst	r9, #1
    92f0:	e1a090a9 	lsr	r9, r9, #1
    92f4:	01c610b0 	strheq	r1, [r6]
    92f8:	11c630b0 	strhne	r3, [r6]
    92fc:	e3190001 	tst	r9, #1
    9300:	e2099002 	and	r9, r9, #2
    9304:	e6ef9079 	uxtb	r9, r9
    9308:	01c710b0 	strheq	r1, [r7]
    930c:	11c730b0 	strhne	r3, [r7]
    9310:	e3590000 	cmp	r9, #0
    9314:	01ca10b0 	strheq	r1, [sl]
    9318:	11ca30b0 	strhne	r3, [sl]
    931c:	e352000c 	cmp	r2, #12
    9320:	e28aad0f 	add	sl, sl, #960	; 0x3c0
    9324:	e2888d0f 	add	r8, r8, #960	; 0x3c0
    9328:	e2877d0f 	add	r7, r7, #960	; 0x3c0
    932c:	e2866d0f 	add	r6, r6, #960	; 0x3c0
    9330:	e2855d0f 	add	r5, r5, #960	; 0x3c0
    9334:	e2844d0f 	add	r4, r4, #960	; 0x3c0
    9338:	e28ccd0f 	add	ip, ip, #960	; 0x3c0
    933c:	e2800d0f 	add	r0, r0, #960	; 0x3c0
    9340:	1affffd3 	bne	9294 <console_draw_char+0xa4>
    9344:	e59d0004 	ldr	r0, [sp, #4]
    9348:	e28dd008 	add	sp, sp, #8
    934c:	e8bd0ff0 	pop	{r4, r5, r6, r7, r8, r9, sl, fp}
    9350:	e12fff1e 	bx	lr
    9354:	0000b9a8 	andeq	fp, r0, r8, lsr #19
    9358:	0000aef4 	strdeq	sl, [r0], -r4

0000935c <console_putc>:
    935c:	e92d4ff0 	push	{r4, r5, r6, r7, r8, r9, sl, fp, lr}
    9360:	e350000a 	cmp	r0, #10
    9364:	e24dd014 	sub	sp, sp, #20
    9368:	e58d0000 	str	r0, [sp]
    936c:	0a000071 	beq	9538 <console_putc+0x1dc>
    9370:	e59d3000 	ldr	r3, [sp]
    9374:	e353000d 	cmp	r3, #13
    9378:	0a00006a 	beq	9528 <console_putc+0x1cc>
    937c:	e3530009 	cmp	r3, #9
    9380:	e59f327c 	ldr	r3, [pc, #636]	; 9604 <console_putc+0x2a8>
    9384:	0a000063 	beq	9518 <console_putc+0x1bc>
    9388:	e59f1274 	ldr	r1, [pc, #628]	; 9604 <console_putc+0x2a8>
    938c:	e5933000 	ldr	r3, [r3]
    9390:	e5911004 	ldr	r1, [r1, #4]
    9394:	e58d3008 	str	r3, [sp, #8]
    9398:	e0833083 	add	r3, r3, r3, lsl #1
    939c:	e1a08181 	lsl	r8, r1, #3
    93a0:	e1a02303 	lsl	r2, r3, #6
    93a4:	e58d100c 	str	r1, [sp, #12]
    93a8:	e59d1000 	ldr	r1, [sp]
    93ac:	e0423103 	sub	r3, r2, r3, lsl #2
    93b0:	e59f2250 	ldr	r2, [pc, #592]	; 9608 <console_putc+0x2ac>
    93b4:	e1a03283 	lsl	r3, r3, #5
    93b8:	e6ef9071 	uxtb	r9, r1
    93bc:	e288a007 	add	sl, r8, #7
    93c0:	e2887006 	add	r7, r8, #6
    93c4:	e2886005 	add	r6, r8, #5
    93c8:	e2885004 	add	r5, r8, #4
    93cc:	e288c003 	add	ip, r8, #3
    93d0:	e2880002 	add	r0, r8, #2
    93d4:	e2881001 	add	r1, r8, #1
    93d8:	e5922000 	ldr	r2, [r2]
    93dc:	e083a00a 	add	sl, r3, sl
    93e0:	e0888003 	add	r8, r8, r3
    93e4:	e0837007 	add	r7, r3, r7
    93e8:	e0836006 	add	r6, r3, r6
    93ec:	e0835005 	add	r5, r3, r5
    93f0:	e083c00c 	add	ip, r3, ip
    93f4:	e0830000 	add	r0, r3, r0
    93f8:	e0831001 	add	r1, r3, r1
    93fc:	e59f3208 	ldr	r3, [pc, #520]	; 960c <console_putc+0x2b0>
    9400:	e58d2004 	str	r2, [sp, #4]
    9404:	e1d320b0 	ldrh	r2, [r3]
    9408:	e59f31f4 	ldr	r3, [pc, #500]	; 9604 <console_putc+0x2a8>
    940c:	e59fb1fc 	ldr	fp, [pc, #508]	; 9610 <console_putc+0x2b4>
    9410:	e1d340b8 	ldrh	r4, [r3, #8]
    9414:	e59d3004 	ldr	r3, [sp, #4]
    9418:	e0899089 	add	r9, r9, r9, lsl #1
    941c:	e083a08a 	add	sl, r3, sl, lsl #1
    9420:	e0838088 	add	r8, r3, r8, lsl #1
    9424:	e0837087 	add	r7, r3, r7, lsl #1
    9428:	e0836086 	add	r6, r3, r6, lsl #1
    942c:	e0835085 	add	r5, r3, r5, lsl #1
    9430:	e083c08c 	add	ip, r3, ip, lsl #1
    9434:	e0830080 	add	r0, r3, r0, lsl #1
    9438:	e0831081 	add	r1, r3, r1, lsl #1
    943c:	e08bb109 	add	fp, fp, r9, lsl #2
    9440:	e3a03000 	mov	r3, #0
    9444:	e7db9003 	ldrb	r9, [fp, r3]
    9448:	e2833001 	add	r3, r3, #1
    944c:	e3190001 	tst	r9, #1
    9450:	e1a090a9 	lsr	r9, r9, #1
    9454:	01c840b0 	strheq	r4, [r8]
    9458:	11c820b0 	strhne	r2, [r8]
    945c:	e3190001 	tst	r9, #1
    9460:	e1a090a9 	lsr	r9, r9, #1
    9464:	01c140b0 	strheq	r4, [r1]
    9468:	11c120b0 	strhne	r2, [r1]
    946c:	e3190001 	tst	r9, #1
    9470:	e1a090a9 	lsr	r9, r9, #1
    9474:	01c040b0 	strheq	r4, [r0]
    9478:	11c020b0 	strhne	r2, [r0]
    947c:	e3190001 	tst	r9, #1
    9480:	e1a090a9 	lsr	r9, r9, #1
    9484:	01cc40b0 	strheq	r4, [ip]
    9488:	11cc20b0 	strhne	r2, [ip]
    948c:	e3190001 	tst	r9, #1
    9490:	e1a090a9 	lsr	r9, r9, #1
    9494:	01c540b0 	strheq	r4, [r5]
    9498:	11c520b0 	strhne	r2, [r5]
    949c:	e3190001 	tst	r9, #1
    94a0:	e1a090a9 	lsr	r9, r9, #1
    94a4:	01c640b0 	strheq	r4, [r6]
    94a8:	11c620b0 	strhne	r2, [r6]
    94ac:	e3190001 	tst	r9, #1
    94b0:	e2099002 	and	r9, r9, #2
    94b4:	e6ef9079 	uxtb	r9, r9
    94b8:	01c740b0 	strheq	r4, [r7]
    94bc:	11c720b0 	strhne	r2, [r7]
    94c0:	e3590000 	cmp	r9, #0
    94c4:	01ca40b0 	strheq	r4, [sl]
    94c8:	11ca20b0 	strhne	r2, [sl]
    94cc:	e353000c 	cmp	r3, #12
    94d0:	e28aad0f 	add	sl, sl, #960	; 0x3c0
    94d4:	e2888d0f 	add	r8, r8, #960	; 0x3c0
    94d8:	e2877d0f 	add	r7, r7, #960	; 0x3c0
    94dc:	e2866d0f 	add	r6, r6, #960	; 0x3c0
    94e0:	e2855d0f 	add	r5, r5, #960	; 0x3c0
    94e4:	e28ccd0f 	add	ip, ip, #960	; 0x3c0
    94e8:	e2800d0f 	add	r0, r0, #960	; 0x3c0
    94ec:	e2811d0f 	add	r1, r1, #960	; 0x3c0
    94f0:	1affffd3 	bne	9444 <console_putc+0xe8>
    94f4:	e59d100c 	ldr	r1, [sp, #12]
    94f8:	e59f5104 	ldr	r5, [pc, #260]	; 9604 <console_putc+0x2a8>
    94fc:	e2813001 	add	r3, r1, #1
    9500:	e353003c 	cmp	r3, #60	; 0x3c
    9504:	e5853004 	str	r3, [r5, #4]
    9508:	0a000024 	beq	95a0 <console_putc+0x244>
    950c:	e59d0000 	ldr	r0, [sp]
    9510:	e28dd014 	add	sp, sp, #20
    9514:	e8bd8ff0 	pop	{r4, r5, r6, r7, r8, r9, sl, fp, pc}
    9518:	e5932004 	ldr	r2, [r3, #4]
    951c:	e2822004 	add	r2, r2, #4
    9520:	e5832004 	str	r2, [r3, #4]
    9524:	eafffff8 	b	950c <console_putc+0x1b0>
    9528:	e59f30d4 	ldr	r3, [pc, #212]	; 9604 <console_putc+0x2a8>
    952c:	e3a02000 	mov	r2, #0
    9530:	e5832004 	str	r2, [r3, #4]
    9534:	eafffff4 	b	950c <console_putc+0x1b0>
    9538:	e59f40c4 	ldr	r4, [pc, #196]	; 9604 <console_putc+0x2a8>
    953c:	e3a03000 	mov	r3, #0
    9540:	e5946000 	ldr	r6, [r4]
    9544:	e5843004 	str	r3, [r4, #4]
    9548:	e2863001 	add	r3, r6, #1
    954c:	e353001a 	cmp	r3, #26
    9550:	e5843000 	str	r3, [r4]
    9554:	1affffec 	bne	950c <console_putc+0x1b0>
    9558:	e59f80b4 	ldr	r8, [pc, #180]	; 9614 <console_putc+0x2b8>
    955c:	e59f30a4 	ldr	r3, [pc, #164]	; 9608 <console_putc+0x2ac>
    9560:	e5982000 	ldr	r2, [r8]
    9564:	e5935000 	ldr	r5, [r3]
    9568:	e0821082 	add	r1, r2, r2, lsl #1
    956c:	e3a07f4d 	mov	r7, #308	; 0x134
    9570:	e0851101 	add	r1, r5, r1, lsl #2
    9574:	e0020297 	mul	r2, r7, r2
    9578:	e1a00005 	mov	r0, r5
    957c:	eb000123 	bl	9a10 <memmove>
    9580:	e5980000 	ldr	r0, [r8]
    9584:	e1d410b8 	ldrh	r1, [r4, #8]
    9588:	e0802080 	add	r2, r0, r0, lsl #1
    958c:	e1a02102 	lsl	r2, r2, #2
    9590:	e0205097 	mla	r0, r7, r0, r5
    9594:	eb00016a 	bl	9b44 <memset>
    9598:	e5846000 	str	r6, [r4]
    959c:	eaffffda 	b	950c <console_putc+0x1b0>
    95a0:	e59d2008 	ldr	r2, [sp, #8]
    95a4:	e2823001 	add	r3, r2, #1
    95a8:	e353001a 	cmp	r3, #26
    95ac:	e5853000 	str	r3, [r5]
    95b0:	e3a03000 	mov	r3, #0
    95b4:	e5853004 	str	r3, [r5, #4]
    95b8:	1affffd3 	bne	950c <console_putc+0x1b0>
    95bc:	e59f7050 	ldr	r7, [pc, #80]	; 9614 <console_putc+0x2b8>
    95c0:	e59d0004 	ldr	r0, [sp, #4]
    95c4:	e5972000 	ldr	r2, [r7]
    95c8:	e3a06f4d 	mov	r6, #308	; 0x134
    95cc:	e0821082 	add	r1, r2, r2, lsl #1
    95d0:	e0801101 	add	r1, r0, r1, lsl #2
    95d4:	e0020296 	mul	r2, r6, r2
    95d8:	eb00010c 	bl	9a10 <memmove>
    95dc:	e5970000 	ldr	r0, [r7]
    95e0:	e59d3004 	ldr	r3, [sp, #4]
    95e4:	e0802080 	add	r2, r0, r0, lsl #1
    95e8:	e1a01004 	mov	r1, r4
    95ec:	e0203096 	mla	r0, r6, r0, r3
    95f0:	e1a02102 	lsl	r2, r2, #2
    95f4:	eb000152 	bl	9b44 <memset>
    95f8:	e59d3008 	ldr	r3, [sp, #8]
    95fc:	e5853000 	str	r3, [r5]
    9600:	eaffffc1 	b	950c <console_putc+0x1b0>
    9604:	0000b988 	andeq	fp, r0, r8, lsl #19
    9608:	0000b9a8 	andeq	fp, r0, r8, lsr #19
    960c:	0000aef0 	strdeq	sl, [r0], -r0
    9610:	0000aef4 	strdeq	sl, [r0], -r4
    9614:	0000b99c 	muleq	r0, ip, r9

00009618 <console_clear>:
    9618:	e59f3028 	ldr	r3, [pc, #40]	; 9648 <console_clear+0x30>
    961c:	e92d4010 	push	{r4, lr}
    9620:	e5930000 	ldr	r0, [r3]
    9624:	e59f4020 	ldr	r4, [pc, #32]	; 964c <console_clear+0x34>
    9628:	e59f3020 	ldr	r3, [pc, #32]	; 9650 <console_clear+0x38>
    962c:	e1d410b8 	ldrh	r1, [r4, #8]
    9630:	e5932000 	ldr	r2, [r3]
    9634:	eb000142 	bl	9b44 <memset>
    9638:	e3a03000 	mov	r3, #0
    963c:	e5843004 	str	r3, [r4, #4]
    9640:	e5843000 	str	r3, [r4]
    9644:	e8bd8010 	pop	{r4, pc}
    9648:	0000b9a8 	andeq	fp, r0, r8, lsr #19
    964c:	0000b988 	andeq	fp, r0, r8, lsl #19
    9650:	0000b9b0 			; <UNDEFINED> instruction: 0x0000b9b0

00009654 <console_set_cursor>:
    9654:	e350003c 	cmp	r0, #60	; 0x3c
    9658:	e59f3014 	ldr	r3, [pc, #20]	; 9674 <console_set_cursor+0x20>
    965c:	c3a00000 	movgt	r0, #0
    9660:	e351001a 	cmp	r1, #26
    9664:	c3a01000 	movgt	r1, #0
    9668:	e5830004 	str	r0, [r3, #4]
    966c:	e5831000 	str	r1, [r3]
    9670:	e12fff1e 	bx	lr
    9674:	0000b988 	andeq	fp, r0, r8, lsl #19

00009678 <console_set_fg_color>:
    9678:	e59f3004 	ldr	r3, [pc, #4]	; 9684 <console_set_fg_color+0xc>
    967c:	e1c300b0 	strh	r0, [r3]
    9680:	e12fff1e 	bx	lr
    9684:	0000aef0 	strdeq	sl, [r0], -r0

00009688 <console_set_bg_color>:
    9688:	e59f3004 	ldr	r3, [pc, #4]	; 9694 <console_set_bg_color+0xc>
    968c:	e1c300b8 	strh	r0, [r3, #8]
    9690:	e12fff1e 	bx	lr
    9694:	0000b988 	andeq	fp, r0, r8, lsl #19

00009698 <fb_init>:
    9698:	e92d40f8 	push	{r3, r4, r5, r6, r7, lr}
    969c:	e59f40ac 	ldr	r4, [pc, #172]	; 9750 <fb_init+0xb8>
    96a0:	e3a02e1e 	mov	r2, #480	; 0x1e0
    96a4:	e3a03d05 	mov	r3, #320	; 0x140
    96a8:	e5842000 	str	r2, [r4]
    96ac:	e3a05000 	mov	r5, #0
    96b0:	e5843004 	str	r3, [r4, #4]
    96b4:	e5842008 	str	r2, [r4, #8]
    96b8:	e584300c 	str	r3, [r4, #12]
    96bc:	e3a03010 	mov	r3, #16
    96c0:	e5845010 	str	r5, [r4, #16]
    96c4:	e3a00001 	mov	r0, #1
    96c8:	e5843014 	str	r3, [r4, #20]
    96cc:	e1a01004 	mov	r1, r4
    96d0:	e5845018 	str	r5, [r4, #24]
    96d4:	e584501c 	str	r5, [r4, #28]
    96d8:	e5845020 	str	r5, [r4, #32]
    96dc:	e5845024 	str	r5, [r4, #36]	; 0x24
    96e0:	ebfffc4e 	bl	8820 <bcm2835_mailbox_write>
    96e4:	e3a00001 	mov	r0, #1
    96e8:	ebfffc41 	bl	87f4 <bcm2835_mailbox_read>
    96ec:	e5943020 	ldr	r3, [r4, #32]
    96f0:	e1530005 	cmp	r3, r5
    96f4:	0a000013 	beq	9748 <fb_init+0xb0>
    96f8:	e5947000 	ldr	r7, [r4]
    96fc:	e59f3050 	ldr	r3, [pc, #80]	; 9754 <fb_init+0xbc>
    9700:	e5946004 	ldr	r6, [r4, #4]
    9704:	e594c010 	ldr	ip, [r4, #16]
    9708:	e5940014 	ldr	r0, [r4, #20]
    970c:	e5941020 	ldr	r1, [r4, #32]
    9710:	e5942024 	ldr	r2, [r4, #36]	; 0x24
    9714:	e5837000 	str	r7, [r3]
    9718:	e59f3038 	ldr	r3, [pc, #56]	; 9758 <fb_init+0xc0>
    971c:	e5836000 	str	r6, [r3]
    9720:	e59f3034 	ldr	r3, [pc, #52]	; 975c <fb_init+0xc4>
    9724:	e583c000 	str	ip, [r3]
    9728:	e59f3030 	ldr	r3, [pc, #48]	; 9760 <fb_init+0xc8>
    972c:	e5830000 	str	r0, [r3]
    9730:	e59f302c 	ldr	r3, [pc, #44]	; 9764 <fb_init+0xcc>
    9734:	e1a00005 	mov	r0, r5
    9738:	e5831000 	str	r1, [r3]
    973c:	e59f3024 	ldr	r3, [pc, #36]	; 9768 <fb_init+0xd0>
    9740:	e5832000 	str	r2, [r3]
    9744:	e8bd80f8 	pop	{r3, r4, r5, r6, r7, pc}
    9748:	e3e00000 	mvn	r0, #0
    974c:	e8bd80f8 	pop	{r3, r4, r5, r6, r7, pc}
    9750:	40007000 	andmi	r7, r0, r0
    9754:	0000b9a0 	andeq	fp, r0, r0, lsr #19
    9758:	0000b9ac 	andeq	fp, r0, ip, lsr #19
    975c:	0000b99c 	muleq	r0, ip, r9
    9760:	0000b9a4 	andeq	fp, r0, r4, lsr #19
    9764:	0000b9a8 	andeq	fp, r0, r8, lsr #19
    9768:	0000b9b0 			; <UNDEFINED> instruction: 0x0000b9b0

0000976c <mcp7941x_start>:
    976c:	e92d4010 	push	{r4, lr}
    9770:	e1a04000 	mov	r4, r0
    9774:	ebfffb6a 	bl	8524 <bcm2835_i2c_begin>
    9778:	e3540000 	cmp	r4, #0
    977c:	e59f300c 	ldr	r3, [pc, #12]	; 9790 <mcp7941x_start+0x24>
    9780:	03a0406f 	moveq	r4, #111	; 0x6f
    9784:	e5c34000 	strb	r4, [r3]
    9788:	e3a00000 	mov	r0, #0
    978c:	e8bd8010 	pop	{r4, pc}
    9790:	0000b4f4 	strdeq	fp, [r0], -r4

00009794 <mcp7941x_end>:
    9794:	eafffb71 	b	8560 <bcm2835_i2c_end>

00009798 <mcp7941x_get_date_time>:
    9798:	e92d4ff0 	push	{r4, r5, r6, r7, r8, r9, sl, fp, lr}
    979c:	e59f2120 	ldr	r2, [pc, #288]	; 98c4 <mcp7941x_get_date_time+0x12c>
    97a0:	e24dd024 	sub	sp, sp, #36	; 0x24
    97a4:	e3a03000 	mov	r3, #0
    97a8:	e1a04000 	mov	r4, r0
    97ac:	e5d20000 	ldrb	r0, [r2]
    97b0:	e5cd3014 	strb	r3, [sp, #20]
    97b4:	e5cd3018 	strb	r3, [sp, #24]
    97b8:	e5cd3019 	strb	r3, [sp, #25]
    97bc:	e5cd301a 	strb	r3, [sp, #26]
    97c0:	e5cd301b 	strb	r3, [sp, #27]
    97c4:	e5cd301c 	strb	r3, [sp, #28]
    97c8:	e5cd301d 	strb	r3, [sp, #29]
    97cc:	e5cd301e 	strb	r3, [sp, #30]
    97d0:	ebfffb68 	bl	8578 <bcm2835_i2c_setSlaveAddress>
    97d4:	e59f00ec 	ldr	r0, [pc, #236]	; 98c8 <mcp7941x_get_date_time+0x130>
    97d8:	ebfffb6a 	bl	8588 <bcm2835_i2c_setClockDivider>
    97dc:	e3a01001 	mov	r1, #1
    97e0:	e28d0014 	add	r0, sp, #20
    97e4:	ebfffb6b 	bl	8598 <bcm2835_i2c_write>
    97e8:	e3a01007 	mov	r1, #7
    97ec:	e28d0018 	add	r0, sp, #24
    97f0:	ebfffbac 	bl	86a8 <bcm2835_i2c_read>
    97f4:	e5dd001d 	ldrb	r0, [sp, #29]
    97f8:	e5dd301b 	ldrb	r3, [sp, #27]
    97fc:	e200101f 	and	r1, r0, #31
    9800:	e5ddb018 	ldrb	fp, [sp, #24]
    9804:	e5dda019 	ldrb	sl, [sp, #25]
    9808:	e1a01241 	asr	r1, r1, #4
    980c:	e58d3008 	str	r3, [sp, #8]
    9810:	e1a03101 	lsl	r3, r1, #2
    9814:	e5dd701a 	ldrb	r7, [sp, #26]
    9818:	e5dd501c 	ldrb	r5, [sp, #28]
    981c:	e20b907f 	and	r9, fp, #127	; 0x7f
    9820:	e20a807f 	and	r8, sl, #127	; 0x7f
    9824:	e58d300c 	str	r3, [sp, #12]
    9828:	e20bb00f 	and	fp, fp, #15
    982c:	e5dd201e 	ldrb	r2, [sp, #30]
    9830:	e58db004 	str	fp, [sp, #4]
    9834:	e1a08248 	asr	r8, r8, #4
    9838:	e59db00c 	ldr	fp, [sp, #12]
    983c:	e207603f 	and	r6, r7, #63	; 0x3f
    9840:	e205c03f 	and	ip, r5, #63	; 0x3f
    9844:	e0888108 	add	r8, r8, r8, lsl #2
    9848:	e20aa00f 	and	sl, sl, #15
    984c:	e1a03222 	lsr	r3, r2, #4
    9850:	e08b1001 	add	r1, fp, r1
    9854:	e08aa088 	add	sl, sl, r8, lsl #1
    9858:	e1a09249 	asr	r9, r9, #4
    985c:	e1a06246 	asr	r6, r6, #4
    9860:	e1a0c24c 	asr	ip, ip, #4
    9864:	e59db004 	ldr	fp, [sp, #4]
    9868:	e59d8008 	ldr	r8, [sp, #8]
    986c:	e0866106 	add	r6, r6, r6, lsl #2
    9870:	e0899109 	add	r9, r9, r9, lsl #2
    9874:	e207700f 	and	r7, r7, #15
    9878:	e205500f 	and	r5, r5, #15
    987c:	e08cc10c 	add	ip, ip, ip, lsl #2
    9880:	e200000f 	and	r0, r0, #15
    9884:	e202200f 	and	r2, r2, #15
    9888:	e0833103 	add	r3, r3, r3, lsl #2
    988c:	e0877086 	add	r7, r7, r6, lsl #1
    9890:	e08b9089 	add	r9, fp, r9, lsl #1
    9894:	e2086007 	and	r6, r8, #7
    9898:	e085508c 	add	r5, r5, ip, lsl #1
    989c:	e0800081 	add	r0, r0, r1, lsl #1
    98a0:	e0822083 	add	r2, r2, r3, lsl #1
    98a4:	e8840600 	stm	r4, {r9, sl}
    98a8:	e5847008 	str	r7, [r4, #8]
    98ac:	e5846018 	str	r6, [r4, #24]
    98b0:	e584500c 	str	r5, [r4, #12]
    98b4:	e5840010 	str	r0, [r4, #16]
    98b8:	e5842014 	str	r2, [r4, #20]
    98bc:	e28dd024 	add	sp, sp, #36	; 0x24
    98c0:	e8bd8ff0 	pop	{r4, r5, r6, r7, r8, r9, sl, fp, pc}
    98c4:	0000b4f4 	strdeq	fp, [r0], -r4
    98c8:	000009c4 	andeq	r0, r0, r4, asr #19

000098cc <mcp7941x_set_date_time>:
    98cc:	e92d4ff0 	push	{r4, r5, r6, r7, r8, r9, sl, fp, lr}
    98d0:	e9900640 	ldmib	r0, {r6, r9, sl}
    98d4:	e590b000 	ldr	fp, [r0]
    98d8:	e59f2114 	ldr	r2, [pc, #276]	; 99f4 <mcp7941x_set_date_time+0x128>
    98dc:	e20bb07f 	and	fp, fp, #127	; 0x7f
    98e0:	e0c73b92 	smull	r3, r7, r2, fp
    98e4:	e5908010 	ldr	r8, [r0, #16]
    98e8:	e209901f 	and	r9, r9, #31
    98ec:	e0ce3992 	smull	r3, lr, r2, r9
    98f0:	e206607f 	and	r6, r6, #127	; 0x7f
    98f4:	e5905014 	ldr	r5, [r0, #20]
    98f8:	e0c43692 	smull	r3, r4, r2, r6
    98fc:	e208801f 	and	r8, r8, #31
    9900:	e20aa03f 	and	sl, sl, #63	; 0x3f
    9904:	e0cc3a92 	smull	r3, ip, r2, sl
    9908:	e1a07127 	lsr	r7, r7, #2
    990c:	e1a03008 	mov	r3, r8
    9910:	e0c13392 	smull	r3, r1, r2, r3
    9914:	e0c23592 	smull	r3, r2, r2, r5
    9918:	e0873107 	add	r3, r7, r7, lsl #2
    991c:	e1a0e12e 	lsr	lr, lr, #2
    9920:	e04b3083 	sub	r3, fp, r3, lsl #1
    9924:	e24dd01c 	sub	sp, sp, #28
    9928:	e1a04124 	lsr	r4, r4, #2
    992c:	e0833207 	add	r3, r3, r7, lsl #4
    9930:	e08e710e 	add	r7, lr, lr, lsl #2
    9934:	e58d7008 	str	r7, [sp, #8]
    9938:	e1a0c12c 	lsr	ip, ip, #2
    993c:	e084b104 	add	fp, r4, r4, lsl #2
    9940:	e08c710c 	add	r7, ip, ip, lsl #2
    9944:	e046608b 	sub	r6, r6, fp, lsl #1
    9948:	e59db008 	ldr	fp, [sp, #8]
    994c:	e58d700c 	str	r7, [sp, #12]
    9950:	e049908b 	sub	r9, r9, fp, lsl #1
    9954:	e59db00c 	ldr	fp, [sp, #12]
    9958:	e58d8004 	str	r8, [sp, #4]
    995c:	e5900018 	ldr	r0, [r0, #24]
    9960:	e1a08fc5 	asr	r8, r5, #31
    9964:	e1a01121 	lsr	r1, r1, #2
    9968:	e04aa08b 	sub	sl, sl, fp, lsl #1
    996c:	e59db004 	ldr	fp, [sp, #4]
    9970:	e0682142 	rsb	r2, r8, r2, asr #2
    9974:	e2000007 	and	r0, r0, #7
    9978:	e0818101 	add	r8, r1, r1, lsl #2
    997c:	e0827102 	add	r7, r2, r2, lsl #2
    9980:	e04b8088 	sub	r8, fp, r8, lsl #1
    9984:	e380b008 	orr	fp, r0, #8
    9988:	e59f0068 	ldr	r0, [pc, #104]	; 99f8 <mcp7941x_set_date_time+0x12c>
    998c:	e0455087 	sub	r5, r5, r7, lsl #1
    9990:	e1e03c83 	mvn	r3, r3, lsl #25
    9994:	e0881201 	add	r1, r8, r1, lsl #4
    9998:	e1e03ca3 	mvn	r3, r3, lsr #25
    999c:	e089920e 	add	r9, r9, lr, lsl #4
    99a0:	e0852202 	add	r2, r5, r2, lsl #4
    99a4:	e08aa20c 	add	sl, sl, ip, lsl #4
    99a8:	e0866204 	add	r6, r6, r4, lsl #4
    99ac:	e3a0c000 	mov	ip, #0
    99b0:	e5d00000 	ldrb	r0, [r0]
    99b4:	e5cd1016 	strb	r1, [sp, #22]
    99b8:	e5cdc010 	strb	ip, [sp, #16]
    99bc:	e5cd3011 	strb	r3, [sp, #17]
    99c0:	e5cd2017 	strb	r2, [sp, #23]
    99c4:	e5cd6012 	strb	r6, [sp, #18]
    99c8:	e5cd9013 	strb	r9, [sp, #19]
    99cc:	e5cdb014 	strb	fp, [sp, #20]
    99d0:	e5cda015 	strb	sl, [sp, #21]
    99d4:	ebfffae7 	bl	8578 <bcm2835_i2c_setSlaveAddress>
    99d8:	e59f001c 	ldr	r0, [pc, #28]	; 99fc <mcp7941x_set_date_time+0x130>
    99dc:	ebfffae9 	bl	8588 <bcm2835_i2c_setClockDivider>
    99e0:	e28d0010 	add	r0, sp, #16
    99e4:	e3a01008 	mov	r1, #8
    99e8:	ebfffaea 	bl	8598 <bcm2835_i2c_write>
    99ec:	e28dd01c 	add	sp, sp, #28
    99f0:	e8bd8ff0 	pop	{r4, r5, r6, r7, r8, r9, sl, fp, pc}
    99f4:	66666667 	strbtvs	r6, [r6], -r7, ror #12
    99f8:	0000b4f4 	strdeq	fp, [r0], -r4
    99fc:	000009c4 	andeq	r0, r0, r4, asr #19

00009a00 <__errno>:
    9a00:	e59f3004 	ldr	r3, [pc, #4]	; 9a0c <__errno+0xc>
    9a04:	e5930000 	ldr	r0, [r3]
    9a08:	e12fff1e 	bx	lr
    9a0c:	0000b4f8 	strdeq	fp, [r0], -r8

00009a10 <memmove>:
    9a10:	e1500001 	cmp	r0, r1
    9a14:	e92d00f0 	push	{r4, r5, r6, r7}
    9a18:	9a00000e 	bls	9a58 <memmove+0x48>
    9a1c:	e081c002 	add	ip, r1, r2
    9a20:	e150000c 	cmp	r0, ip
    9a24:	2a00000b 	bcs	9a58 <memmove+0x48>
    9a28:	e3520000 	cmp	r2, #0
    9a2c:	e0803002 	add	r3, r0, r2
    9a30:	e2422001 	sub	r2, r2, #1
    9a34:	0a000005 	beq	9a50 <memmove+0x40>
    9a38:	e1a0100c 	mov	r1, ip
    9a3c:	e571c001 	ldrb	ip, [r1, #-1]!
    9a40:	e2422001 	sub	r2, r2, #1
    9a44:	e3720001 	cmn	r2, #1
    9a48:	e563c001 	strb	ip, [r3, #-1]!
    9a4c:	1afffffa 	bne	9a3c <memmove+0x2c>
    9a50:	e8bd00f0 	pop	{r4, r5, r6, r7}
    9a54:	e12fff1e 	bx	lr
    9a58:	e352000f 	cmp	r2, #15
    9a5c:	8a000009 	bhi	9a88 <memmove+0x78>
    9a60:	e1a03000 	mov	r3, r0
    9a64:	e3520000 	cmp	r2, #0
    9a68:	0afffff8 	beq	9a50 <memmove+0x40>
    9a6c:	e2411001 	sub	r1, r1, #1
    9a70:	e0832002 	add	r2, r3, r2
    9a74:	e5f1c001 	ldrb	ip, [r1, #1]!
    9a78:	e4c3c001 	strb	ip, [r3], #1
    9a7c:	e1530002 	cmp	r3, r2
    9a80:	1afffffb 	bne	9a74 <memmove+0x64>
    9a84:	eafffff1 	b	9a50 <memmove+0x40>
    9a88:	e1813000 	orr	r3, r1, r0
    9a8c:	e3130003 	tst	r3, #3
    9a90:	1a000027 	bne	9b34 <memmove+0x124>
    9a94:	e1a0c001 	mov	ip, r1
    9a98:	e1a03000 	mov	r3, r0
    9a9c:	e1a04002 	mov	r4, r2
    9aa0:	e59c5000 	ldr	r5, [ip]
    9aa4:	e2444010 	sub	r4, r4, #16
    9aa8:	e5835000 	str	r5, [r3]
    9aac:	e59c5004 	ldr	r5, [ip, #4]
    9ab0:	e354000f 	cmp	r4, #15
    9ab4:	e5835004 	str	r5, [r3, #4]
    9ab8:	e59c5008 	ldr	r5, [ip, #8]
    9abc:	e5835008 	str	r5, [r3, #8]
    9ac0:	e59c500c 	ldr	r5, [ip, #12]
    9ac4:	e28cc010 	add	ip, ip, #16
    9ac8:	e583500c 	str	r5, [r3, #12]
    9acc:	e2833010 	add	r3, r3, #16
    9ad0:	8afffff2 	bhi	9aa0 <memmove+0x90>
    9ad4:	e2424010 	sub	r4, r2, #16
    9ad8:	e3c4400f 	bic	r4, r4, #15
    9adc:	e202c00f 	and	ip, r2, #15
    9ae0:	e2844010 	add	r4, r4, #16
    9ae4:	e35c0003 	cmp	ip, #3
    9ae8:	e0803004 	add	r3, r0, r4
    9aec:	e0811004 	add	r1, r1, r4
    9af0:	9a000011 	bls	9b3c <memmove+0x12c>
    9af4:	e24cc004 	sub	ip, ip, #4
    9af8:	e1a0712c 	lsr	r7, ip, #2
    9afc:	e0816107 	add	r6, r1, r7, lsl #2
    9b00:	e1a0c001 	mov	ip, r1
    9b04:	e2866004 	add	r6, r6, #4
    9b08:	e1a04003 	mov	r4, r3
    9b0c:	e49c5004 	ldr	r5, [ip], #4
    9b10:	e15c0006 	cmp	ip, r6
    9b14:	e4845004 	str	r5, [r4], #4
    9b18:	1afffffb 	bne	9b0c <memmove+0xfc>
    9b1c:	e287c001 	add	ip, r7, #1
    9b20:	e1a0c10c 	lsl	ip, ip, #2
    9b24:	e2022003 	and	r2, r2, #3
    9b28:	e081100c 	add	r1, r1, ip
    9b2c:	e083300c 	add	r3, r3, ip
    9b30:	eaffffcb 	b	9a64 <memmove+0x54>
    9b34:	e1a03000 	mov	r3, r0
    9b38:	eaffffcb 	b	9a6c <memmove+0x5c>
    9b3c:	e1a0200c 	mov	r2, ip
    9b40:	eaffffc7 	b	9a64 <memmove+0x54>

00009b44 <memset>:
    9b44:	e3100003 	tst	r0, #3
    9b48:	e92d0030 	push	{r4, r5}
    9b4c:	e1a03000 	mov	r3, r0
    9b50:	0a000037 	beq	9c34 <memset+0xf0>
    9b54:	e3520000 	cmp	r2, #0
    9b58:	e2422001 	sub	r2, r2, #1
    9b5c:	0a000032 	beq	9c2c <memset+0xe8>
    9b60:	e6ef4071 	uxtb	r4, r1
    9b64:	ea000002 	b	9b74 <memset+0x30>
    9b68:	e3520000 	cmp	r2, #0
    9b6c:	e2422001 	sub	r2, r2, #1
    9b70:	0a00002d 	beq	9c2c <memset+0xe8>
    9b74:	e4c34001 	strb	r4, [r3], #1
    9b78:	e3130003 	tst	r3, #3
    9b7c:	e1a0c003 	mov	ip, r3
    9b80:	1afffff8 	bne	9b68 <memset+0x24>
    9b84:	e3520003 	cmp	r2, #3
    9b88:	9a000020 	bls	9c10 <memset+0xcc>
    9b8c:	e6ef4071 	uxtb	r4, r1
    9b90:	e352000f 	cmp	r2, #15
    9b94:	e1844404 	orr	r4, r4, r4, lsl #8
    9b98:	e1844804 	orr	r4, r4, r4, lsl #16
    9b9c:	81a0300c 	movhi	r3, ip
    9ba0:	81a05002 	movhi	r5, r2
    9ba4:	9a00000e 	bls	9be4 <memset+0xa0>
    9ba8:	e2455010 	sub	r5, r5, #16
    9bac:	e355000f 	cmp	r5, #15
    9bb0:	e5834000 	str	r4, [r3]
    9bb4:	e5834004 	str	r4, [r3, #4]
    9bb8:	e5834008 	str	r4, [r3, #8]
    9bbc:	e583400c 	str	r4, [r3, #12]
    9bc0:	e2833010 	add	r3, r3, #16
    9bc4:	8afffff7 	bhi	9ba8 <memset+0x64>
    9bc8:	e2423010 	sub	r3, r2, #16
    9bcc:	e3c3300f 	bic	r3, r3, #15
    9bd0:	e202200f 	and	r2, r2, #15
    9bd4:	e2833010 	add	r3, r3, #16
    9bd8:	e3520003 	cmp	r2, #3
    9bdc:	e08cc003 	add	ip, ip, r3
    9be0:	9a00000a 	bls	9c10 <memset+0xcc>
    9be4:	e1a0500c 	mov	r5, ip
    9be8:	e1a03002 	mov	r3, r2
    9bec:	e2433004 	sub	r3, r3, #4
    9bf0:	e3530003 	cmp	r3, #3
    9bf4:	e4854004 	str	r4, [r5], #4
    9bf8:	8afffffb 	bhi	9bec <memset+0xa8>
    9bfc:	e2423004 	sub	r3, r2, #4
    9c00:	e3c33003 	bic	r3, r3, #3
    9c04:	e2833004 	add	r3, r3, #4
    9c08:	e2022003 	and	r2, r2, #3
    9c0c:	e08cc003 	add	ip, ip, r3
    9c10:	e3520000 	cmp	r2, #0
    9c14:	16ef1071 	uxtbne	r1, r1
    9c18:	108c2002 	addne	r2, ip, r2
    9c1c:	0a000002 	beq	9c2c <memset+0xe8>
    9c20:	e4cc1001 	strb	r1, [ip], #1
    9c24:	e15c0002 	cmp	ip, r2
    9c28:	1afffffc 	bne	9c20 <memset+0xdc>
    9c2c:	e8bd0030 	pop	{r4, r5}
    9c30:	e12fff1e 	bx	lr
    9c34:	e1a0c000 	mov	ip, r0
    9c38:	eaffffd1 	b	9b84 <memset+0x40>

00009c3c <validate_structure>:
    9c3c:	e92d47f0 	push	{r4, r5, r6, r7, r8, r9, sl, lr}
    9c40:	e5901000 	ldr	r1, [r0]
    9c44:	e24dd008 	sub	sp, sp, #8
    9c48:	e351003b 	cmp	r1, #59	; 0x3b
    9c4c:	e1a04000 	mov	r4, r0
    9c50:	8a0000a7 	bhi	9ef4 <validate_structure+0x2b8>
    9c54:	e5901004 	ldr	r1, [r0, #4]
    9c58:	e351003b 	cmp	r1, #59	; 0x3b
    9c5c:	8a000095 	bhi	9eb8 <validate_structure+0x27c>
    9c60:	e5941008 	ldr	r1, [r4, #8]
    9c64:	e3510017 	cmp	r1, #23
    9c68:	8a000083 	bhi	9e7c <validate_structure+0x240>
    9c6c:	e594c010 	ldr	ip, [r4, #16]
    9c70:	e35c000b 	cmp	ip, #11
    9c74:	8a000070 	bhi	9e3c <validate_structure+0x200>
    9c78:	e5943014 	ldr	r3, [r4, #20]
    9c7c:	e3130003 	tst	r3, #3
    9c80:	1a000031 	bne	9d4c <validate_structure+0x110>
    9c84:	e59f22cc 	ldr	r2, [pc, #716]	; 9f58 <validate_structure+0x31c>
    9c88:	e1a01fc3 	asr	r1, r3, #31
    9c8c:	e0c05392 	smull	r5, r0, r2, r3
    9c90:	e06112c0 	rsb	r1, r1, r0, asr #5
    9c94:	e3a00064 	mov	r0, #100	; 0x64
    9c98:	e0010190 	mul	r1, r0, r1
    9c9c:	e1530001 	cmp	r3, r1
    9ca0:	0a000020 	beq	9d28 <validate_structure+0xec>
    9ca4:	e594200c 	ldr	r2, [r4, #12]
    9ca8:	e3a0501d 	mov	r5, #29
    9cac:	e3520000 	cmp	r2, #0
    9cb0:	ca000029 	bgt	9d5c <validate_structure+0x120>
    9cb4:	e1a0100c 	mov	r1, ip
    9cb8:	e59f029c 	ldr	r0, [pc, #668]	; 9f5c <validate_structure+0x320>
    9cbc:	e59f6294 	ldr	r6, [pc, #660]	; 9f58 <validate_structure+0x31c>
    9cc0:	e3a0c064 	mov	ip, #100	; 0x64
    9cc4:	e3a07e19 	mov	r7, #400	; 0x190
    9cc8:	ea000006 	b	9ce8 <validate_structure+0xac>
    9ccc:	e3510001 	cmp	r1, #1
    9cd0:	01a03005 	moveq	r3, r5
    9cd4:	0a000000 	beq	9cdc <validate_structure+0xa0>
    9cd8:	e7903101 	ldr	r3, [r0, r1, lsl #2]
    9cdc:	e0822003 	add	r2, r2, r3
    9ce0:	e3520000 	cmp	r2, #0
    9ce4:	ca000050 	bgt	9e2c <validate_structure+0x1f0>
    9ce8:	e2511001 	subs	r1, r1, #1
    9cec:	2afffff6 	bcs	9ccc <validate_structure+0x90>
    9cf0:	e5943014 	ldr	r3, [r4, #20]
    9cf4:	e2433001 	sub	r3, r3, #1
    9cf8:	e3130003 	tst	r3, #3
    9cfc:	e5843014 	str	r3, [r4, #20]
    9d00:	1a000092 	bne	9f50 <validate_structure+0x314>
    9d04:	e0c51396 	smull	r1, r5, r6, r3
    9d08:	e1a01fc3 	asr	r1, r3, #31
    9d0c:	e06112c5 	rsb	r1, r1, r5, asr #5
    9d10:	e001019c 	mul	r1, ip, r1
    9d14:	e1530001 	cmp	r3, r1
    9d18:	0a000084 	beq	9f30 <validate_structure+0x2f4>
    9d1c:	e3a0501d 	mov	r5, #29
    9d20:	e3a0100b 	mov	r1, #11
    9d24:	eaffffeb 	b	9cd8 <validate_structure+0x9c>
    9d28:	e2833e76 	add	r3, r3, #1888	; 0x760
    9d2c:	e283300c 	add	r3, r3, #12
    9d30:	e0c20392 	smull	r0, r2, r2, r3
    9d34:	e1a01fc3 	asr	r1, r3, #31
    9d38:	e06123c2 	rsb	r2, r1, r2, asr #7
    9d3c:	e3a01e19 	mov	r1, #400	; 0x190
    9d40:	e0020291 	mul	r2, r1, r2
    9d44:	e1530002 	cmp	r3, r2
    9d48:	0affffd5 	beq	9ca4 <validate_structure+0x68>
    9d4c:	e594200c 	ldr	r2, [r4, #12]
    9d50:	e3a0501c 	mov	r5, #28
    9d54:	e3520000 	cmp	r2, #0
    9d58:	daffffd5 	ble	9cb4 <validate_structure+0x78>
    9d5c:	e59f61f8 	ldr	r6, [pc, #504]	; 9f5c <validate_structure+0x320>
    9d60:	e59f81f0 	ldr	r8, [pc, #496]	; 9f58 <validate_structure+0x31c>
    9d64:	e3a07000 	mov	r7, #0
    9d68:	e3a0a064 	mov	sl, #100	; 0x64
    9d6c:	e3a09e19 	mov	r9, #400	; 0x190
    9d70:	e28c3001 	add	r3, ip, #1
    9d74:	e3a01000 	mov	r1, #0
    9d78:	e086c10c 	add	ip, r6, ip, lsl #2
    9d7c:	ea000009 	b	9da8 <validate_structure+0x16c>
    9d80:	e79c0001 	ldr	r0, [ip, r1]
    9d84:	e1500002 	cmp	r0, r2
    9d88:	e0602002 	rsb	r2, r0, r2
    9d8c:	aa000028 	bge	9e34 <validate_structure+0x1f8>
    9d90:	e353000c 	cmp	r3, #12
    9d94:	e5843010 	str	r3, [r4, #16]
    9d98:	e584200c 	str	r2, [r4, #12]
    9d9c:	0a000009 	beq	9dc8 <validate_structure+0x18c>
    9da0:	e2833001 	add	r3, r3, #1
    9da4:	e2811004 	add	r1, r1, #4
    9da8:	e3530002 	cmp	r3, #2
    9dac:	1afffff3 	bne	9d80 <validate_structure+0x144>
    9db0:	e1550002 	cmp	r5, r2
    9db4:	aa00001e 	bge	9e34 <validate_structure+0x1f8>
    9db8:	e0652002 	rsb	r2, r5, r2
    9dbc:	e584200c 	str	r2, [r4, #12]
    9dc0:	e5843010 	str	r3, [r4, #16]
    9dc4:	eafffff5 	b	9da0 <validate_structure+0x164>
    9dc8:	e5941014 	ldr	r1, [r4, #20]
    9dcc:	e5847010 	str	r7, [r4, #16]
    9dd0:	e2813001 	add	r3, r1, #1
    9dd4:	e3130003 	tst	r3, #3
    9dd8:	e5843014 	str	r3, [r4, #20]
    9ddc:	1a00000d 	bne	9e18 <validate_structure+0x1dc>
    9de0:	e0cc5398 	smull	r5, ip, r8, r3
    9de4:	e1a00fc3 	asr	r0, r3, #31
    9de8:	e06002cc 	rsb	r0, r0, ip, asr #5
    9dec:	e000009a 	mul	r0, sl, r0
    9df0:	e1530000 	cmp	r3, r0
    9df4:	1a00000a 	bne	9e24 <validate_structure+0x1e8>
    9df8:	e2811e76 	add	r1, r1, #1888	; 0x760
    9dfc:	e281100d 	add	r1, r1, #13
    9e00:	e0c03198 	smull	r3, r0, r8, r1
    9e04:	e1a03fc1 	asr	r3, r1, #31
    9e08:	e06333c0 	rsb	r3, r3, r0, asr #7
    9e0c:	e0030399 	mul	r3, r9, r3
    9e10:	e1510003 	cmp	r1, r3
    9e14:	0a000002 	beq	9e24 <validate_structure+0x1e8>
    9e18:	e3a0501c 	mov	r5, #28
    9e1c:	e3a0c000 	mov	ip, #0
    9e20:	eaffffd2 	b	9d70 <validate_structure+0x134>
    9e24:	e3a0501d 	mov	r5, #29
    9e28:	eafffffb 	b	9e1c <validate_structure+0x1e0>
    9e2c:	e5841010 	str	r1, [r4, #16]
    9e30:	e584200c 	str	r2, [r4, #12]
    9e34:	e28dd008 	add	sp, sp, #8
    9e38:	e8bd87f0 	pop	{r4, r5, r6, r7, r8, r9, sl, pc}
    9e3c:	e1a0100c 	mov	r1, ip
    9e40:	e3a0200c 	mov	r2, #12
    9e44:	e1a0000d 	mov	r0, sp
    9e48:	eb000346 	bl	ab68 <div>
    9e4c:	e59dc004 	ldr	ip, [sp, #4]
    9e50:	e5942014 	ldr	r2, [r4, #20]
    9e54:	e59d3000 	ldr	r3, [sp]
    9e58:	e35c0000 	cmp	ip, #0
    9e5c:	e0823003 	add	r3, r2, r3
    9e60:	e5843014 	str	r3, [r4, #20]
    9e64:	b28cc00c 	addlt	ip, ip, #12
    9e68:	b2433001 	sublt	r3, r3, #1
    9e6c:	a584c010 	strge	ip, [r4, #16]
    9e70:	b584c010 	strlt	ip, [r4, #16]
    9e74:	b5843014 	strlt	r3, [r4, #20]
    9e78:	eaffff7f 	b	9c7c <validate_structure+0x40>
    9e7c:	e3a02018 	mov	r2, #24
    9e80:	e1a0000d 	mov	r0, sp
    9e84:	eb000337 	bl	ab68 <div>
    9e88:	e59d3004 	ldr	r3, [sp, #4]
    9e8c:	e594100c 	ldr	r1, [r4, #12]
    9e90:	e59d2000 	ldr	r2, [sp]
    9e94:	e3530000 	cmp	r3, #0
    9e98:	e0812002 	add	r2, r1, r2
    9e9c:	e584200c 	str	r2, [r4, #12]
    9ea0:	e5843008 	str	r3, [r4, #8]
    9ea4:	b2422001 	sublt	r2, r2, #1
    9ea8:	b2833018 	addlt	r3, r3, #24
    9eac:	b5843008 	strlt	r3, [r4, #8]
    9eb0:	b584200c 	strlt	r2, [r4, #12]
    9eb4:	eaffff6c 	b	9c6c <validate_structure+0x30>
    9eb8:	e3a0203c 	mov	r2, #60	; 0x3c
    9ebc:	e1a0000d 	mov	r0, sp
    9ec0:	eb000328 	bl	ab68 <div>
    9ec4:	e59d3004 	ldr	r3, [sp, #4]
    9ec8:	e5941008 	ldr	r1, [r4, #8]
    9ecc:	e59d2000 	ldr	r2, [sp]
    9ed0:	e3530000 	cmp	r3, #0
    9ed4:	e0811002 	add	r1, r1, r2
    9ed8:	e5841008 	str	r1, [r4, #8]
    9edc:	b283303c 	addlt	r3, r3, #60	; 0x3c
    9ee0:	b2411001 	sublt	r1, r1, #1
    9ee4:	a5843004 	strge	r3, [r4, #4]
    9ee8:	b5843004 	strlt	r3, [r4, #4]
    9eec:	b5841008 	strlt	r1, [r4, #8]
    9ef0:	eaffff5b 	b	9c64 <validate_structure+0x28>
    9ef4:	e3a0203c 	mov	r2, #60	; 0x3c
    9ef8:	e1a0000d 	mov	r0, sp
    9efc:	eb000319 	bl	ab68 <div>
    9f00:	e59d3004 	ldr	r3, [sp, #4]
    9f04:	e5941004 	ldr	r1, [r4, #4]
    9f08:	e59d2000 	ldr	r2, [sp]
    9f0c:	e3530000 	cmp	r3, #0
    9f10:	e0811002 	add	r1, r1, r2
    9f14:	e5841004 	str	r1, [r4, #4]
    9f18:	b283303c 	addlt	r3, r3, #60	; 0x3c
    9f1c:	b2411001 	sublt	r1, r1, #1
    9f20:	a5843000 	strge	r3, [r4]
    9f24:	b5843000 	strlt	r3, [r4]
    9f28:	b5841004 	strlt	r1, [r4, #4]
    9f2c:	eaffff49 	b	9c58 <validate_structure+0x1c>
    9f30:	e2833e76 	add	r3, r3, #1888	; 0x760
    9f34:	e283300c 	add	r3, r3, #12
    9f38:	e0c51396 	smull	r1, r5, r6, r3
    9f3c:	e1a01fc3 	asr	r1, r3, #31
    9f40:	e06113c5 	rsb	r1, r1, r5, asr #7
    9f44:	e0010197 	mul	r1, r7, r1
    9f48:	e1530001 	cmp	r3, r1
    9f4c:	0affff72 	beq	9d1c <validate_structure+0xe0>
    9f50:	e3a0501c 	mov	r5, #28
    9f54:	eaffff71 	b	9d20 <validate_structure+0xe4>
    9f58:	51eb851f 	mvnpl	r8, pc, lsl r5
    9f5c:	0000ae1c 	andeq	sl, r0, ip, lsl lr

00009f60 <mktime>:
    9f60:	e92d47f0 	push	{r4, r5, r6, r7, r8, r9, sl, lr}
    9f64:	e1a06000 	mov	r6, r0
    9f68:	eb000316 	bl	abc8 <__gettzinfo>
    9f6c:	e1a07000 	mov	r7, r0
    9f70:	e1a00006 	mov	r0, r6
    9f74:	ebffff30 	bl	9c3c <validate_structure>
    9f78:	e5963010 	ldr	r3, [r6, #16]
    9f7c:	e59f1468 	ldr	r1, [pc, #1128]	; a3ec <mktime+0x48c>
    9f80:	e5962004 	ldr	r2, [r6, #4]
    9f84:	e0811103 	add	r1, r1, r3, lsl #2
    9f88:	e5964000 	ldr	r4, [r6]
    9f8c:	e596500c 	ldr	r5, [r6, #12]
    9f90:	e0622202 	rsb	r2, r2, r2, lsl #4
    9f94:	e596c008 	ldr	ip, [r6, #8]
    9f98:	e5911030 	ldr	r1, [r1, #48]	; 0x30
    9f9c:	e0842102 	add	r2, r4, r2, lsl #2
    9fa0:	e2455001 	sub	r5, r5, #1
    9fa4:	e3530001 	cmp	r3, #1
    9fa8:	e3a00ee1 	mov	r0, #3600	; 0xe10
    9fac:	e0202c90 	mla	r0, r0, ip, r2
    9fb0:	e0855001 	add	r5, r5, r1
    9fb4:	e5963014 	ldr	r3, [r6, #20]
    9fb8:	da000001 	ble	9fc4 <mktime+0x64>
    9fbc:	e3130003 	tst	r3, #3
    9fc0:	0a000081 	beq	a1cc <mktime+0x26c>
    9fc4:	e2831c27 	add	r1, r3, #9984	; 0x2700
    9fc8:	e59f2420 	ldr	r2, [pc, #1056]	; a3f0 <mktime+0x490>
    9fcc:	e2811010 	add	r1, r1, #16
    9fd0:	e1510002 	cmp	r1, r2
    9fd4:	e586501c 	str	r5, [r6, #28]
    9fd8:	8a0000e2 	bhi	a368 <mktime+0x408>
    9fdc:	e3530046 	cmp	r3, #70	; 0x46
    9fe0:	ca00005d 	bgt	a15c <mktime+0x1fc>
    9fe4:	01a04003 	moveq	r4, r3
    9fe8:	0a000035 	beq	a0c4 <mktime+0x164>
    9fec:	e3530045 	cmp	r3, #69	; 0x45
    9ff0:	0a0000de 	beq	a370 <mktime+0x410>
    9ff4:	e59fc3f8 	ldr	ip, [pc, #1016]	; a3f4 <mktime+0x494>
    9ff8:	e3a04045 	mov	r4, #69	; 0x45
    9ffc:	e3a0e064 	mov	lr, #100	; 0x64
    a000:	e3a08e19 	mov	r8, #400	; 0x190
    a004:	ea000011 	b	a050 <mktime+0xf0>
    a008:	e0c9a49c 	smull	sl, r9, ip, r4
    a00c:	e06222c9 	rsb	r2, r2, r9, asr #5
    a010:	e002029e 	mul	r2, lr, r2
    a014:	e2841e76 	add	r1, r4, #1888	; 0x760
    a018:	e281100c 	add	r1, r1, #12
    a01c:	e1540002 	cmp	r4, r2
    a020:	e1a0afc1 	asr	sl, r1, #31
    a024:	1a000004 	bne	a03c <mktime+0xdc>
    a028:	e0c2919c 	smull	r9, r2, ip, r1
    a02c:	e06aa3c2 	rsb	sl, sl, r2, asr #7
    a030:	e00a0a98 	mul	sl, r8, sl
    a034:	e151000a 	cmp	r1, sl
    a038:	1a000007 	bne	a05c <mktime+0xfc>
    a03c:	e59f23b4 	ldr	r2, [pc, #948]	; a3f8 <mktime+0x498>
    a040:	e2444001 	sub	r4, r4, #1
    a044:	e1540003 	cmp	r4, r3
    a048:	e0625005 	rsb	r5, r2, r5
    a04c:	0a000007 	beq	a070 <mktime+0x110>
    a050:	e3140003 	tst	r4, #3
    a054:	e1a02fc4 	asr	r2, r4, #31
    a058:	0affffea 	beq	a008 <mktime+0xa8>
    a05c:	e59f2398 	ldr	r2, [pc, #920]	; a3fc <mktime+0x49c>
    a060:	e2444001 	sub	r4, r4, #1
    a064:	e1540003 	cmp	r4, r3
    a068:	e0625005 	rsb	r5, r2, r5
    a06c:	1afffff7 	bne	a050 <mktime+0xf0>
    a070:	e3140003 	tst	r4, #3
    a074:	1a000010 	bne	a0bc <mktime+0x15c>
    a078:	e59f3374 	ldr	r3, [pc, #884]	; a3f4 <mktime+0x494>
    a07c:	e1a02fc4 	asr	r2, r4, #31
    a080:	e0c1a493 	smull	sl, r1, r3, r4
    a084:	e06222c1 	rsb	r2, r2, r1, asr #5
    a088:	e3a01064 	mov	r1, #100	; 0x64
    a08c:	e0020291 	mul	r2, r1, r2
    a090:	e1540002 	cmp	r4, r2
    a094:	1a0000aa 	bne	a344 <mktime+0x3e4>
    a098:	e2842e76 	add	r2, r4, #1888	; 0x760
    a09c:	e282200c 	add	r2, r2, #12
    a0a0:	e0c3c293 	smull	ip, r3, r3, r2
    a0a4:	e1a01fc2 	asr	r1, r2, #31
    a0a8:	e06133c3 	rsb	r3, r1, r3, asr #7
    a0ac:	e3a01e19 	mov	r1, #400	; 0x190
    a0b0:	e0030391 	mul	r3, r1, r3
    a0b4:	e1520003 	cmp	r2, r3
    a0b8:	0a0000a1 	beq	a344 <mktime+0x3e4>
    a0bc:	e59f3338 	ldr	r3, [pc, #824]	; a3fc <mktime+0x49c>
    a0c0:	e0635005 	rsb	r5, r3, r5
    a0c4:	e59f8334 	ldr	r8, [pc, #820]	; a400 <mktime+0x4a0>
    a0c8:	e0280598 	mla	r8, r8, r5, r0
    a0cc:	eb0002a3 	bl	ab60 <__tz_lock>
    a0d0:	e59f332c 	ldr	r3, [pc, #812]	; a404 <mktime+0x4a4>
    a0d4:	e593a000 	ldr	sl, [r3]
    a0d8:	e35a0000 	cmp	sl, #0
    a0dc:	0a00008b 	beq	a310 <mktime+0x3b0>
    a0e0:	e5960014 	ldr	r0, [r6, #20]
    a0e4:	e5969020 	ldr	r9, [r6, #32]
    a0e8:	e2800e76 	add	r0, r0, #1888	; 0x760
    a0ec:	e5973004 	ldr	r3, [r7, #4]
    a0f0:	e280000c 	add	r0, r0, #12
    a0f4:	e3590001 	cmp	r9, #1
    a0f8:	a3a09001 	movge	r9, #1
    a0fc:	e1530000 	cmp	r3, r0
    a100:	0a00003b 	beq	a1f4 <mktime+0x294>
    a104:	eb0000c0 	bl	a40c <__tzcalc_limits>
    a108:	e3500000 	cmp	r0, #0
    a10c:	1a000038 	bne	a1f4 <mktime+0x294>
    a110:	e1a0a009 	mov	sl, r9
    a114:	e35a0001 	cmp	sl, #1
    a118:	1a00007c 	bne	a310 <mktime+0x3b0>
    a11c:	e597303c 	ldr	r3, [r7, #60]	; 0x3c
    a120:	e0888003 	add	r8, r8, r3
    a124:	eb00028e 	bl	ab64 <__tz_unlock>
    a128:	e59f32d8 	ldr	r3, [pc, #728]	; a408 <mktime+0x4a8>
    a12c:	e2855004 	add	r5, r5, #4
    a130:	e0c30593 	smull	r0, r3, r3, r5
    a134:	e1a02fc5 	asr	r2, r5, #31
    a138:	e0833005 	add	r3, r3, r5
    a13c:	e0623143 	rsb	r3, r2, r3, asr #2
    a140:	e0633183 	rsb	r3, r3, r3, lsl #3
    a144:	e0553003 	subs	r3, r5, r3
    a148:	42833007 	addmi	r3, r3, #7
    a14c:	e586a020 	str	sl, [r6, #32]
    a150:	e5863018 	str	r3, [r6, #24]
    a154:	e1a00008 	mov	r0, r8
    a158:	e8bd87f0 	pop	{r4, r5, r6, r7, r8, r9, sl, pc}
    a15c:	e59fc290 	ldr	ip, [pc, #656]	; a3f4 <mktime+0x494>
    a160:	e3a04046 	mov	r4, #70	; 0x46
    a164:	e3a0e064 	mov	lr, #100	; 0x64
    a168:	e3a08e19 	mov	r8, #400	; 0x190
    a16c:	ea000011 	b	a1b8 <mktime+0x258>
    a170:	e0c9a49c 	smull	sl, r9, ip, r4
    a174:	e06222c9 	rsb	r2, r2, r9, asr #5
    a178:	e002029e 	mul	r2, lr, r2
    a17c:	e2841e76 	add	r1, r4, #1888	; 0x760
    a180:	e281100c 	add	r1, r1, #12
    a184:	e1540002 	cmp	r4, r2
    a188:	e1a0afc1 	asr	sl, r1, #31
    a18c:	1a000004 	bne	a1a4 <mktime+0x244>
    a190:	e0c2919c 	smull	r9, r2, ip, r1
    a194:	e06aa3c2 	rsb	sl, sl, r2, asr #7
    a198:	e00a0a98 	mul	sl, r8, sl
    a19c:	e151000a 	cmp	r1, sl
    a1a0:	1a000007 	bne	a1c4 <mktime+0x264>
    a1a4:	e59f224c 	ldr	r2, [pc, #588]	; a3f8 <mktime+0x498>
    a1a8:	e2844001 	add	r4, r4, #1
    a1ac:	e1540003 	cmp	r4, r3
    a1b0:	e0855002 	add	r5, r5, r2
    a1b4:	0affffc2 	beq	a0c4 <mktime+0x164>
    a1b8:	e3140003 	tst	r4, #3
    a1bc:	e1a02fc4 	asr	r2, r4, #31
    a1c0:	0affffea 	beq	a170 <mktime+0x210>
    a1c4:	e59f2230 	ldr	r2, [pc, #560]	; a3fc <mktime+0x49c>
    a1c8:	eafffff6 	b	a1a8 <mktime+0x248>
    a1cc:	e59f2220 	ldr	r2, [pc, #544]	; a3f4 <mktime+0x494>
    a1d0:	e1a01fc3 	asr	r1, r3, #31
    a1d4:	e0cc4392 	smull	r4, ip, r2, r3
    a1d8:	e06112cc 	rsb	r1, r1, ip, asr #5
    a1dc:	e3a0c064 	mov	ip, #100	; 0x64
    a1e0:	e001019c 	mul	r1, ip, r1
    a1e4:	e1530001 	cmp	r3, r1
    a1e8:	0a00004b 	beq	a31c <mktime+0x3bc>
    a1ec:	e2855001 	add	r5, r5, #1
    a1f0:	eaffff73 	b	9fc4 <mktime+0x64>
    a1f4:	e597a038 	ldr	sl, [r7, #56]	; 0x38
    a1f8:	e597303c 	ldr	r3, [r7, #60]	; 0x3c
    a1fc:	e5972020 	ldr	r2, [r7, #32]
    a200:	e063100a 	rsb	r1, r3, sl
    a204:	e1580001 	cmp	r8, r1
    a208:	e062a00a 	rsb	sl, r2, sl
    a20c:	a3a01000 	movge	r1, #0
    a210:	b3a01001 	movlt	r1, #1
    a214:	e158000a 	cmp	r8, sl
    a218:	b3a01000 	movlt	r1, #0
    a21c:	e3510000 	cmp	r1, #0
    a220:	e597101c 	ldr	r1, [r7, #28]
    a224:	1affffb9 	bne	a110 <mktime+0x1b0>
    a228:	e5970000 	ldr	r0, [r7]
    a22c:	e0631001 	rsb	r1, r3, r1
    a230:	e3500000 	cmp	r0, #0
    a234:	0a000044 	beq	a34c <mktime+0x3ec>
    a238:	e158000a 	cmp	r8, sl
    a23c:	a3a0a000 	movge	sl, #0
    a240:	b3a0a001 	movlt	sl, #1
    a244:	e1580001 	cmp	r8, r1
    a248:	b3a0a000 	movlt	sl, #0
    a24c:	e3590000 	cmp	r9, #0
    a250:	baffffaf 	blt	a114 <mktime+0x1b4>
    a254:	e02a9009 	eor	r9, sl, r9
    a258:	e3590001 	cmp	r9, #1
    a25c:	1affffac 	bne	a114 <mktime+0x1b4>
    a260:	e0633002 	rsb	r3, r3, r2
    a264:	e35a0000 	cmp	sl, #0
    a268:	e5962000 	ldr	r2, [r6]
    a26c:	02633000 	rsbeq	r3, r3, #0
    a270:	e0822003 	add	r2, r2, r3
    a274:	e1a00006 	mov	r0, r6
    a278:	e5862000 	str	r2, [r6]
    a27c:	e596900c 	ldr	r9, [r6, #12]
    a280:	e0888003 	add	r8, r8, r3
    a284:	ebfffe6c 	bl	9c3c <validate_structure>
    a288:	e596300c 	ldr	r3, [r6, #12]
    a28c:	e0533009 	subs	r3, r3, r9
    a290:	0affff9f 	beq	a114 <mktime+0x1b4>
    a294:	e3530001 	cmp	r3, #1
    a298:	c3e03000 	mvngt	r3, #0
    a29c:	da00004d 	ble	a3d8 <mktime+0x478>
    a2a0:	e596201c 	ldr	r2, [r6, #28]
    a2a4:	e0855003 	add	r5, r5, r3
    a2a8:	e0933002 	adds	r3, r3, r2
    a2ac:	4a000033 	bmi	a380 <mktime+0x420>
    a2b0:	e3140003 	tst	r4, #3
    a2b4:	1a00002f 	bne	a378 <mktime+0x418>
    a2b8:	e59f1134 	ldr	r1, [pc, #308]	; a3f4 <mktime+0x494>
    a2bc:	e1a02fc4 	asr	r2, r4, #31
    a2c0:	e0c09491 	smull	r9, r0, r1, r4
    a2c4:	e06222c0 	rsb	r2, r2, r0, asr #5
    a2c8:	e3a00064 	mov	r0, #100	; 0x64
    a2cc:	e0020290 	mul	r2, r0, r2
    a2d0:	e1540002 	cmp	r4, r2
    a2d4:	1a000008 	bne	a2fc <mktime+0x39c>
    a2d8:	e2842e76 	add	r2, r4, #1888	; 0x760
    a2dc:	e282200c 	add	r2, r2, #12
    a2e0:	e0c1c291 	smull	ip, r1, r1, r2
    a2e4:	e1a00fc2 	asr	r0, r2, #31
    a2e8:	e06013c1 	rsb	r1, r0, r1, asr #7
    a2ec:	e3a00e19 	mov	r0, #400	; 0x190
    a2f0:	e0010190 	mul	r1, r0, r1
    a2f4:	e1520001 	cmp	r2, r1
    a2f8:	1a00001e 	bne	a378 <mktime+0x418>
    a2fc:	e59f20f4 	ldr	r2, [pc, #244]	; a3f8 <mktime+0x498>
    a300:	e1520003 	cmp	r2, r3
    a304:	d0623003 	rsble	r3, r2, r3
    a308:	e586301c 	str	r3, [r6, #28]
    a30c:	eaffff80 	b	a114 <mktime+0x1b4>
    a310:	e5970020 	ldr	r0, [r7, #32]
    a314:	e0888000 	add	r8, r8, r0
    a318:	eaffff81 	b	a124 <mktime+0x1c4>
    a31c:	e2831e76 	add	r1, r3, #1888	; 0x760
    a320:	e281100c 	add	r1, r1, #12
    a324:	e0c29192 	smull	r9, r2, r2, r1
    a328:	e1a0cfc1 	asr	ip, r1, #31
    a32c:	e06c23c2 	rsb	r2, ip, r2, asr #7
    a330:	e3a0ce19 	mov	ip, #400	; 0x190
    a334:	e002029c 	mul	r2, ip, r2
    a338:	e1510002 	cmp	r1, r2
    a33c:	1affff20 	bne	9fc4 <mktime+0x64>
    a340:	eaffffa9 	b	a1ec <mktime+0x28c>
    a344:	e59f30ac 	ldr	r3, [pc, #172]	; a3f8 <mktime+0x498>
    a348:	eaffff5c 	b	a0c0 <mktime+0x160>
    a34c:	e1580001 	cmp	r8, r1
    a350:	b3a01000 	movlt	r1, #0
    a354:	a3a01001 	movge	r1, #1
    a358:	e158000a 	cmp	r8, sl
    a35c:	a1a0a001 	movge	sl, r1
    a360:	b381a001 	orrlt	sl, r1, #1
    a364:	eaffffb8 	b	a24c <mktime+0x2ec>
    a368:	e3e08000 	mvn	r8, #0
    a36c:	eaffff78 	b	a154 <mktime+0x1f4>
    a370:	e1a04003 	mov	r4, r3
    a374:	eaffff50 	b	a0bc <mktime+0x15c>
    a378:	e59f207c 	ldr	r2, [pc, #124]	; a3fc <mktime+0x49c>
    a37c:	eaffffdf 	b	a300 <mktime+0x3a0>
    a380:	e2444001 	sub	r4, r4, #1
    a384:	e3140003 	tst	r4, #3
    a388:	1a000015 	bne	a3e4 <mktime+0x484>
    a38c:	e59f2060 	ldr	r2, [pc, #96]	; a3f4 <mktime+0x494>
    a390:	e1a03fc4 	asr	r3, r4, #31
    a394:	e0c10492 	smull	r0, r1, r2, r4
    a398:	e06332c1 	rsb	r3, r3, r1, asr #5
    a39c:	e3a01064 	mov	r1, #100	; 0x64
    a3a0:	e0030391 	mul	r3, r1, r3
    a3a4:	e1540003 	cmp	r4, r3
    a3a8:	1a000008 	bne	a3d0 <mktime+0x470>
    a3ac:	e2843e76 	add	r3, r4, #1888	; 0x760
    a3b0:	e283300c 	add	r3, r3, #12
    a3b4:	e0c21392 	smull	r1, r2, r2, r3
    a3b8:	e1a01fc3 	asr	r1, r3, #31
    a3bc:	e06123c2 	rsb	r2, r1, r2, asr #7
    a3c0:	e3a01e19 	mov	r1, #400	; 0x190
    a3c4:	e0020291 	mul	r2, r1, r2
    a3c8:	e1530002 	cmp	r3, r2
    a3cc:	1a000004 	bne	a3e4 <mktime+0x484>
    a3d0:	e59f3024 	ldr	r3, [pc, #36]	; a3fc <mktime+0x49c>
    a3d4:	eaffffcb 	b	a308 <mktime+0x3a8>
    a3d8:	e3730001 	cmn	r3, #1
    a3dc:	b3a03001 	movlt	r3, #1
    a3e0:	eaffffae 	b	a2a0 <mktime+0x340>
    a3e4:	e3a03f5b 	mov	r3, #364	; 0x16c
    a3e8:	eaffffc6 	b	a308 <mktime+0x3a8>
    a3ec:	0000ae1c 	andeq	sl, r0, ip, lsl lr
    a3f0:	00004e20 	andeq	r4, r0, r0, lsr #28
    a3f4:	51eb851f 	mvnpl	r8, pc, lsl r5
    a3f8:	0000016e 	andeq	r0, r0, lr, ror #2
    a3fc:	0000016d 	andeq	r0, r0, sp, ror #2
    a400:	00015180 	andeq	r5, r1, r0, lsl #3
    a404:	0000b998 	muleq	r0, r8, r9
    a408:	92492493 	subls	r2, r9, #-1828716544	; 0x93000000

0000a40c <__tzcalc_limits>:
    a40c:	e92d4ff0 	push	{r4, r5, r6, r7, r8, r9, sl, fp, lr}
    a410:	e24dd00c 	sub	sp, sp, #12
    a414:	e1a04000 	mov	r4, r0
    a418:	eb0001ea 	bl	abc8 <__gettzinfo>
    a41c:	e59f3220 	ldr	r3, [pc, #544]	; a644 <__tzcalc_limits+0x238>
    a420:	e1a06000 	mov	r6, r0
    a424:	e1540003 	cmp	r4, r3
    a428:	d3a00000 	movle	r0, #0
    a42c:	da000064 	ble	a5c4 <__tzcalc_limits+0x1b8>
    a430:	e59f1210 	ldr	r1, [pc, #528]	; a648 <__tzcalc_limits+0x23c>
    a434:	e244ce7b 	sub	ip, r4, #1968	; 0x7b0
    a438:	e0c92491 	smull	r2, r9, r1, r4
    a43c:	e2440e76 	sub	r0, r4, #1888	; 0x760
    a440:	e24c2002 	sub	r2, ip, #2
    a444:	e1a05fc4 	asr	r5, r4, #31
    a448:	e240000d 	sub	r0, r0, #13
    a44c:	e2443d19 	sub	r3, r4, #1600	; 0x640
    a450:	e0c87091 	smull	r7, r8, r1, r0
    a454:	e2433001 	sub	r3, r3, #1
    a458:	e06572c9 	rsb	r7, r5, r9, asr #5
    a45c:	e082a182 	add	sl, r2, r2, lsl #3
    a460:	e06553c9 	rsb	r5, r5, r9, asr #7
    a464:	e3a09e19 	mov	r9, #400	; 0x190
    a468:	e0090599 	mul	r9, r9, r5
    a46c:	e0c1b391 	smull	fp, r1, r1, r3
    a470:	e082218a 	add	r2, r2, sl, lsl #3
    a474:	e3a0a064 	mov	sl, #100	; 0x64
    a478:	e007079a 	mul	r7, sl, r7
    a47c:	e1a03fc3 	asr	r3, r3, #31
    a480:	e24ca001 	sub	sl, ip, #1
    a484:	e0822102 	add	r2, r2, r2, lsl #2
    a488:	e1a00fc0 	asr	r0, r0, #31
    a48c:	e04082c8 	sub	r8, r0, r8, asr #5
    a490:	e06313c1 	rsb	r1, r3, r1, asr #7
    a494:	e082a14a 	add	sl, r2, sl, asr #2
    a498:	e0543009 	subs	r3, r4, r9
    a49c:	e08aa008 	add	sl, sl, r8
    a4a0:	e5864004 	str	r4, [r6, #4]
    a4a4:	e0677004 	rsb	r7, r7, r4
    a4a8:	e2739000 	rsbs	r9, r3, #0
    a4ac:	e2044003 	and	r4, r4, #3
    a4b0:	e59f8194 	ldr	r8, [pc, #404]	; a64c <__tzcalc_limits+0x240>
    a4b4:	e08aa001 	add	sl, sl, r1
    a4b8:	e0b99003 	adcs	r9, r9, r3
    a4bc:	e1a0c006 	mov	ip, r6
    a4c0:	e3a05000 	mov	r5, #0
    a4c4:	e58d4004 	str	r4, [sp, #4]
    a4c8:	e5dc3008 	ldrb	r3, [ip, #8]
    a4cc:	e353004a 	cmp	r3, #74	; 0x4a
    a4d0:	0a000041 	beq	a5dc <__tzcalc_limits+0x1d0>
    a4d4:	e3530044 	cmp	r3, #68	; 0x44
    a4d8:	0a000053 	beq	a62c <__tzcalc_limits+0x220>
    a4dc:	e59d2004 	ldr	r2, [sp, #4]
    a4e0:	e3520000 	cmp	r2, #0
    a4e4:	11a03009 	movne	r3, r9
    a4e8:	0a000037 	beq	a5cc <__tzcalc_limits+0x1c0>
    a4ec:	e1a04083 	lsl	r4, r3, #1
    a4f0:	e59cb00c 	ldr	fp, [ip, #12]
    a4f4:	e0844003 	add	r4, r4, r3
    a4f8:	e59f3150 	ldr	r3, [pc, #336]	; a650 <__tzcalc_limits+0x244>
    a4fc:	e35b0001 	cmp	fp, #1
    a500:	e0834204 	add	r4, r3, r4, lsl #4
    a504:	da00004b 	ble	a638 <__tzcalc_limits+0x22c>
    a508:	e2440008 	sub	r0, r4, #8
    a50c:	e2443004 	sub	r3, r4, #4
    a510:	e080010b 	add	r0, r0, fp, lsl #2
    a514:	e1a0200a 	mov	r2, sl
    a518:	e5b31004 	ldr	r1, [r3, #4]!
    a51c:	e1530000 	cmp	r3, r0
    a520:	e0822001 	add	r2, r2, r1
    a524:	1afffffb 	bne	a518 <__tzcalc_limits+0x10c>
    a528:	e24bb001 	sub	fp, fp, #1
    a52c:	e1a0b10b 	lsl	fp, fp, #2
    a530:	e59f111c 	ldr	r1, [pc, #284]	; a654 <__tzcalc_limits+0x248>
    a534:	e2823004 	add	r3, r2, #4
    a538:	e0c01391 	smull	r1, r0, r1, r3
    a53c:	e1a01fc3 	asr	r1, r3, #31
    a540:	e0800003 	add	r0, r0, r3
    a544:	e0610140 	rsb	r0, r1, r0, asr #2
    a548:	e0600180 	rsb	r0, r0, r0, lsl #3
    a54c:	e59c1014 	ldr	r1, [ip, #20]
    a550:	e0603003 	rsb	r3, r0, r3
    a554:	e0511003 	subs	r1, r1, r3
    a558:	e59c3010 	ldr	r3, [ip, #16]
    a55c:	42811007 	addmi	r1, r1, #7
    a560:	e2433001 	sub	r3, r3, #1
    a564:	e794000b 	ldr	r0, [r4, fp]
    a568:	e0633183 	rsb	r3, r3, r3, lsl #3
    a56c:	e0831001 	add	r1, r3, r1
    a570:	e1510000 	cmp	r1, r0
    a574:	ba000002 	blt	a584 <__tzcalc_limits+0x178>
    a578:	e2411007 	sub	r1, r1, #7
    a57c:	e1510000 	cmp	r1, r0
    a580:	aafffffc 	bge	a578 <__tzcalc_limits+0x16c>
    a584:	e0822001 	add	r2, r2, r1
    a588:	e59c0018 	ldr	r0, [ip, #24]
    a58c:	e59c3020 	ldr	r3, [ip, #32]
    a590:	e0220298 	mla	r2, r8, r2, r0
    a594:	e2855001 	add	r5, r5, #1
    a598:	e0822003 	add	r2, r2, r3
    a59c:	e3550002 	cmp	r5, #2
    a5a0:	e5ac201c 	str	r2, [ip, #28]!
    a5a4:	1affffc7 	bne	a4c8 <__tzcalc_limits+0xbc>
    a5a8:	e5963038 	ldr	r3, [r6, #56]	; 0x38
    a5ac:	e596201c 	ldr	r2, [r6, #28]
    a5b0:	e3a00001 	mov	r0, #1
    a5b4:	e1520003 	cmp	r2, r3
    a5b8:	a3a03000 	movge	r3, #0
    a5bc:	b3a03001 	movlt	r3, #1
    a5c0:	e5863000 	str	r3, [r6]
    a5c4:	e28dd00c 	add	sp, sp, #12
    a5c8:	e8bd8ff0 	pop	{r4, r5, r6, r7, r8, r9, sl, fp, pc}
    a5cc:	e3570000 	cmp	r7, #0
    a5d0:	01a03009 	moveq	r3, r9
    a5d4:	13a03001 	movne	r3, #1
    a5d8:	eaffffc3 	b	a4ec <__tzcalc_limits+0xe0>
    a5dc:	e59d1004 	ldr	r1, [sp, #4]
    a5e0:	e59c3014 	ldr	r3, [ip, #20]
    a5e4:	e3510000 	cmp	r1, #0
    a5e8:	e083200a 	add	r2, r3, sl
    a5ec:	1a000007 	bne	a610 <__tzcalc_limits+0x204>
    a5f0:	e3570000 	cmp	r7, #0
    a5f4:	0a000005 	beq	a610 <__tzcalc_limits+0x204>
    a5f8:	e353003b 	cmp	r3, #59	; 0x3b
    a5fc:	d3a03000 	movle	r3, #0
    a600:	c3a03001 	movgt	r3, #1
    a604:	e0822003 	add	r2, r2, r3
    a608:	e2422001 	sub	r2, r2, #1
    a60c:	eaffffdd 	b	a588 <__tzcalc_limits+0x17c>
    a610:	e3590000 	cmp	r9, #0
    a614:	01a03009 	moveq	r3, r9
    a618:	0afffff9 	beq	a604 <__tzcalc_limits+0x1f8>
    a61c:	e353003b 	cmp	r3, #59	; 0x3b
    a620:	d3a03000 	movle	r3, #0
    a624:	c3a03001 	movgt	r3, #1
    a628:	eafffff5 	b	a604 <__tzcalc_limits+0x1f8>
    a62c:	e59c2014 	ldr	r2, [ip, #20]
    a630:	e08a2002 	add	r2, sl, r2
    a634:	eaffffd3 	b	a588 <__tzcalc_limits+0x17c>
    a638:	e1a0200a 	mov	r2, sl
    a63c:	e3a0b000 	mov	fp, #0
    a640:	eaffffba 	b	a530 <__tzcalc_limits+0x124>
    a644:	000007b1 			; <UNDEFINED> instruction: 0x000007b1
    a648:	51eb851f 	mvnpl	r8, pc, lsl r5
    a64c:	00015180 	andeq	r5, r1, r0, lsl #3
    a650:	0000ae7c 	andeq	sl, r0, ip, ror lr
    a654:	92492493 	subls	r2, r9, #-1828716544	; 0x93000000

0000a658 <_mktm_r>:
    a658:	e92d4ff8 	push	{r3, r4, r5, r6, r7, r8, r9, sl, fp, lr}
    a65c:	e1a06001 	mov	r6, r1
    a660:	e1a08000 	mov	r8, r0
    a664:	e1a07002 	mov	r7, r2
    a668:	eb000156 	bl	abc8 <__gettzinfo>
    a66c:	e5981000 	ldr	r1, [r8]
    a670:	e59f34c0 	ldr	r3, [pc, #1216]	; ab38 <_mktm_r+0x4e0>
    a674:	e1a0a000 	mov	sl, r0
    a678:	e0c30193 	smull	r0, r3, r3, r1
    a67c:	e1a02fc1 	asr	r2, r1, #31
    a680:	e0833001 	add	r3, r3, r1
    a684:	e0623843 	rsb	r3, r2, r3, asr #16
    a688:	e59f24ac 	ldr	r2, [pc, #1196]	; ab3c <_mktm_r+0x4e4>
    a68c:	e59f44ac 	ldr	r4, [pc, #1196]	; ab40 <_mktm_r+0x4e8>
    a690:	e0020392 	mul	r2, r2, r3
    a694:	e0512002 	subs	r2, r1, r2
    a698:	42822a15 	addmi	r2, r2, #86016	; 0x15000
    a69c:	42822d06 	addmi	r2, r2, #384	; 0x180
    a6a0:	e0c45294 	smull	r5, r4, r4, r2
    a6a4:	e1a01fc2 	asr	r1, r2, #31
    a6a8:	e0844002 	add	r4, r4, r2
    a6ac:	e06145c4 	rsb	r4, r1, r4, asr #11
    a6b0:	e3a01ee1 	mov	r1, #3600	; 0xe10
    a6b4:	e0010491 	mul	r1, r1, r4
    a6b8:	42433001 	submi	r3, r3, #1
    a6bc:	e59f0480 	ldr	r0, [pc, #1152]	; ab44 <_mktm_r+0x4ec>
    a6c0:	e0612002 	rsb	r2, r1, r2
    a6c4:	e59fc47c 	ldr	ip, [pc, #1148]	; ab48 <_mktm_r+0x4f0>
    a6c8:	e2831004 	add	r1, r3, #4
    a6cc:	e0c05190 	smull	r5, r0, r0, r1
    a6d0:	e0ccb29c 	smull	fp, ip, ip, r2
    a6d4:	e1a05fc1 	asr	r5, r1, #31
    a6d8:	e0800001 	add	r0, r0, r1
    a6dc:	e1a09fc2 	asr	r9, r2, #31
    a6e0:	e08cc002 	add	ip, ip, r2
    a6e4:	e0650140 	rsb	r0, r5, r0, asr #2
    a6e8:	e069c2cc 	rsb	ip, r9, ip, asr #5
    a6ec:	e0600180 	rsb	r0, r0, r0, lsl #3
    a6f0:	e0510000 	subs	r0, r1, r0
    a6f4:	e06c520c 	rsb	r5, ip, ip, lsl #4
    a6f8:	e0422105 	sub	r2, r2, r5, lsl #2
    a6fc:	42800007 	addmi	r0, r0, #7
    a700:	e3530000 	cmp	r3, #0
    a704:	e5864008 	str	r4, [r6, #8]
    a708:	e8861004 	stm	r6, {r2, ip}
    a70c:	e5860018 	str	r0, [r6, #24]
    a710:	e59f4434 	ldr	r4, [pc, #1076]	; ab4c <_mktm_r+0x4f4>
    a714:	e59f2434 	ldr	r2, [pc, #1076]	; ab50 <_mktm_r+0x4f8>
    a718:	e59f0434 	ldr	r0, [pc, #1076]	; ab54 <_mktm_r+0x4fc>
    a71c:	e3a05e19 	mov	r5, #400	; 0x190
    a720:	e3a09064 	mov	r9, #100	; 0x64
    a724:	aa000002 	bge	a734 <_mktm_r+0xdc>
    a728:	ea00003b 	b	a81c <_mktm_r+0x1c4>
    a72c:	e2844001 	add	r4, r4, #1
    a730:	e0613003 	rsb	r3, r1, r3
    a734:	e3140003 	tst	r4, #3
    a738:	e1a0cfc4 	asr	ip, r4, #31
    a73c:	1a000005 	bne	a758 <_mktm_r+0x100>
    a740:	e0c1b490 	smull	fp, r1, r0, r4
    a744:	e06c12c1 	rsb	r1, ip, r1, asr #5
    a748:	e0010199 	mul	r1, r9, r1
    a74c:	e1540001 	cmp	r4, r1
    a750:	13a0c001 	movne	ip, #1
    a754:	1a000005 	bne	a770 <_mktm_r+0x118>
    a758:	e0c1b490 	smull	fp, r1, r0, r4
    a75c:	e06cc3c1 	rsb	ip, ip, r1, asr #7
    a760:	e00c0c95 	mul	ip, r5, ip
    a764:	e054b00c 	subs	fp, r4, ip
    a768:	e27bc000 	rsbs	ip, fp, #0
    a76c:	e0bcc00b 	adcs	ip, ip, fp
    a770:	e082110c 	add	r1, r2, ip, lsl #2
    a774:	e5911060 	ldr	r1, [r1, #96]	; 0x60
    a778:	e1530001 	cmp	r3, r1
    a77c:	aaffffea 	bge	a72c <_mktm_r+0xd4>
    a780:	e2440e76 	sub	r0, r4, #1888	; 0x760
    a784:	e1a0108c 	lsl	r1, ip, #1
    a788:	e240000c 	sub	r0, r0, #12
    a78c:	e081c00c 	add	ip, r1, ip
    a790:	e5860014 	str	r0, [r6, #20]
    a794:	e3a00000 	mov	r0, #0
    a798:	e1a0120c 	lsl	r1, ip, #4
    a79c:	e586301c 	str	r3, [r6, #28]
    a7a0:	e5860010 	str	r0, [r6, #16]
    a7a4:	e792c001 	ldr	ip, [r2, r1]
    a7a8:	e0829001 	add	r9, r2, r1
    a7ac:	e153000c 	cmp	r3, ip
    a7b0:	ba000007 	blt	a7d4 <_mktm_r+0x17c>
    a7b4:	e1a02009 	mov	r2, r9
    a7b8:	e3a05001 	mov	r5, #1
    a7bc:	e5865010 	str	r5, [r6, #16]
    a7c0:	e06c3003 	rsb	r3, ip, r3
    a7c4:	e5b2c004 	ldr	ip, [r2, #4]!
    a7c8:	e2855001 	add	r5, r5, #1
    a7cc:	e15c0003 	cmp	ip, r3
    a7d0:	dafffff9 	ble	a7bc <_mktm_r+0x164>
    a7d4:	e2833001 	add	r3, r3, #1
    a7d8:	e3570000 	cmp	r7, #0
    a7dc:	e586300c 	str	r3, [r6, #12]
    a7e0:	13a03000 	movne	r3, #0
    a7e4:	15863020 	strne	r3, [r6, #32]
    a7e8:	0a00001a 	beq	a858 <_mktm_r+0x200>
    a7ec:	e1a00006 	mov	r0, r6
    a7f0:	e8bd8ff8 	pop	{r3, r4, r5, r6, r7, r8, r9, sl, fp, pc}
    a7f4:	e0c1b490 	smull	fp, r1, r0, r4
    a7f8:	e06cc3c1 	rsb	ip, ip, r1, asr #7
    a7fc:	e00c0c95 	mul	ip, r5, ip
    a800:	e054100c 	subs	r1, r4, ip
    a804:	e271c000 	rsbs	ip, r1, #0
    a808:	e0bcc001 	adcs	ip, ip, r1
    a80c:	e082110c 	add	r1, r2, ip, lsl #2
    a810:	e5911060 	ldr	r1, [r1, #96]	; 0x60
    a814:	e0933001 	adds	r3, r3, r1
    a818:	5affffd8 	bpl	a780 <_mktm_r+0x128>
    a81c:	e2444001 	sub	r4, r4, #1
    a820:	e3140003 	tst	r4, #3
    a824:	e1a0cfc4 	asr	ip, r4, #31
    a828:	1afffff1 	bne	a7f4 <_mktm_r+0x19c>
    a82c:	e0c1b490 	smull	fp, r1, r0, r4
    a830:	e06c12c1 	rsb	r1, ip, r1, asr #5
    a834:	e0010199 	mul	r1, r9, r1
    a838:	e1540001 	cmp	r4, r1
    a83c:	13a0c001 	movne	ip, #1
    a840:	0affffeb 	beq	a7f4 <_mktm_r+0x19c>
    a844:	e082110c 	add	r1, r2, ip, lsl #2
    a848:	e5911060 	ldr	r1, [r1, #96]	; 0x60
    a84c:	e0933001 	adds	r3, r3, r1
    a850:	4afffff1 	bmi	a81c <_mktm_r+0x1c4>
    a854:	eaffffc9 	b	a780 <_mktm_r+0x128>
    a858:	eb0000c0 	bl	ab60 <__tz_lock>
    a85c:	e59f32f4 	ldr	r3, [pc, #756]	; ab58 <_mktm_r+0x500>
    a860:	e5933000 	ldr	r3, [r3]
    a864:	e3530000 	cmp	r3, #0
    a868:	1a000047 	bne	a98c <_mktm_r+0x334>
    a86c:	e5867020 	str	r7, [r6, #32]
    a870:	e59a1020 	ldr	r1, [sl, #32]
    a874:	e59fc2c4 	ldr	ip, [pc, #708]	; ab40 <_mktm_r+0x4e8>
    a878:	e1a00fc1 	asr	r0, r1, #31
    a87c:	e0cc219c 	smull	r2, ip, ip, r1
    a880:	e08cc001 	add	ip, ip, r1
    a884:	e1a0c5cc 	asr	ip, ip, #11
    a888:	e060300c 	rsb	r3, r0, ip
    a88c:	e3a02ee1 	mov	r2, #3600	; 0xe10
    a890:	e0030392 	mul	r3, r2, r3
    a894:	e0633001 	rsb	r3, r3, r1
    a898:	e59f12a8 	ldr	r1, [pc, #680]	; ab48 <_mktm_r+0x4f0>
    a89c:	e1a02fc3 	asr	r2, r3, #31
    a8a0:	e0c15391 	smull	r5, r1, r1, r3
    a8a4:	e0811003 	add	r1, r1, r3
    a8a8:	e06212c1 	rsb	r1, r2, r1, asr #5
    a8ac:	e5964000 	ldr	r4, [r6]
    a8b0:	e0615201 	rsb	r5, r1, r1, lsl #4
    a8b4:	e596e004 	ldr	lr, [r6, #4]
    a8b8:	e5962008 	ldr	r2, [r6, #8]
    a8bc:	e0433105 	sub	r3, r3, r5, lsl #2
    a8c0:	e0633004 	rsb	r3, r3, r4
    a8c4:	e060000c 	rsb	r0, r0, ip
    a8c8:	e061100e 	rsb	r1, r1, lr
    a8cc:	e0602002 	rsb	r2, r0, r2
    a8d0:	e353003b 	cmp	r3, #59	; 0x3b
    a8d4:	e5863000 	str	r3, [r6]
    a8d8:	e9860006 	stmib	r6, {r1, r2}
    a8dc:	da00005d 	ble	aa58 <_mktm_r+0x400>
    a8e0:	e2811001 	add	r1, r1, #1
    a8e4:	e243303c 	sub	r3, r3, #60	; 0x3c
    a8e8:	e5861004 	str	r1, [r6, #4]
    a8ec:	e5863000 	str	r3, [r6]
    a8f0:	e351003b 	cmp	r1, #59	; 0x3b
    a8f4:	da000039 	ble	a9e0 <_mktm_r+0x388>
    a8f8:	e2822001 	add	r2, r2, #1
    a8fc:	e241103c 	sub	r1, r1, #60	; 0x3c
    a900:	e3520017 	cmp	r2, #23
    a904:	e9860006 	stmib	r6, {r1, r2}
    a908:	da00003a 	ble	a9f8 <_mktm_r+0x3a0>
    a90c:	e5963018 	ldr	r3, [r6, #24]
    a910:	e596101c 	ldr	r1, [r6, #28]
    a914:	e2833001 	add	r3, r3, #1
    a918:	e3530006 	cmp	r3, #6
    a91c:	c3a03000 	movgt	r3, #0
    a920:	e5863018 	str	r3, [r6, #24]
    a924:	e596300c 	ldr	r3, [r6, #12]
    a928:	e2811001 	add	r1, r1, #1
    a92c:	e586101c 	str	r1, [r6, #28]
    a930:	e2422018 	sub	r2, r2, #24
    a934:	e2833001 	add	r3, r3, #1
    a938:	e5961010 	ldr	r1, [r6, #16]
    a93c:	e586300c 	str	r3, [r6, #12]
    a940:	e5862008 	str	r2, [r6, #8]
    a944:	e7992101 	ldr	r2, [r9, r1, lsl #2]
    a948:	e1530002 	cmp	r3, r2
    a94c:	da00000b 	ble	a980 <_mktm_r+0x328>
    a950:	e2811001 	add	r1, r1, #1
    a954:	e0623003 	rsb	r3, r2, r3
    a958:	e351000c 	cmp	r1, #12
    a95c:	e586300c 	str	r3, [r6, #12]
    a960:	e5861010 	str	r1, [r6, #16]
    a964:	1a000005 	bne	a980 <_mktm_r+0x328>
    a968:	e5962014 	ldr	r2, [r6, #20]
    a96c:	e3a03000 	mov	r3, #0
    a970:	e2822001 	add	r2, r2, #1
    a974:	e5863010 	str	r3, [r6, #16]
    a978:	e5862014 	str	r2, [r6, #20]
    a97c:	e586301c 	str	r3, [r6, #28]
    a980:	eb000077 	bl	ab64 <__tz_unlock>
    a984:	e1a00006 	mov	r0, r6
    a988:	e8bd8ff8 	pop	{r3, r4, r5, r6, r7, r8, r9, sl, fp, pc}
    a98c:	e59a3004 	ldr	r3, [sl, #4]
    a990:	e1530004 	cmp	r3, r4
    a994:	0a000003 	beq	a9a8 <_mktm_r+0x350>
    a998:	e1a00004 	mov	r0, r4
    a99c:	ebfffe9a 	bl	a40c <__tzcalc_limits>
    a9a0:	e3500000 	cmp	r0, #0
    a9a4:	0a00003d 	beq	aaa0 <_mktm_r+0x448>
    a9a8:	e59a3000 	ldr	r3, [sl]
    a9ac:	e3530000 	cmp	r3, #0
    a9b0:	0a00002e 	beq	aa70 <_mktm_r+0x418>
    a9b4:	e5983000 	ldr	r3, [r8]
    a9b8:	e59a201c 	ldr	r2, [sl, #28]
    a9bc:	e1530002 	cmp	r3, r2
    a9c0:	ba000039 	blt	aaac <_mktm_r+0x454>
    a9c4:	e59a2038 	ldr	r2, [sl, #56]	; 0x38
    a9c8:	e1530002 	cmp	r3, r2
    a9cc:	aa000036 	bge	aaac <_mktm_r+0x454>
    a9d0:	e3a03001 	mov	r3, #1
    a9d4:	e5863020 	str	r3, [r6, #32]
    a9d8:	e59a103c 	ldr	r1, [sl, #60]	; 0x3c
    a9dc:	eaffffa4 	b	a874 <_mktm_r+0x21c>
    a9e0:	e3510000 	cmp	r1, #0
    a9e4:	b2422001 	sublt	r2, r2, #1
    a9e8:	b281103c 	addlt	r1, r1, #60	; 0x3c
    a9ec:	b9860006 	stmiblt	r6, {r1, r2}
    a9f0:	e3520017 	cmp	r2, #23
    a9f4:	caffffc4 	bgt	a90c <_mktm_r+0x2b4>
    a9f8:	e3520000 	cmp	r2, #0
    a9fc:	aaffffdf 	bge	a980 <_mktm_r+0x328>
    aa00:	e5963018 	ldr	r3, [r6, #24]
    aa04:	e596101c 	ldr	r1, [r6, #28]
    aa08:	e2533001 	subs	r3, r3, #1
    aa0c:	43a03006 	movmi	r3, #6
    aa10:	e5863018 	str	r3, [r6, #24]
    aa14:	e596300c 	ldr	r3, [r6, #12]
    aa18:	e2411001 	sub	r1, r1, #1
    aa1c:	e2433001 	sub	r3, r3, #1
    aa20:	e2822018 	add	r2, r2, #24
    aa24:	e3530000 	cmp	r3, #0
    aa28:	e586101c 	str	r1, [r6, #28]
    aa2c:	e586300c 	str	r3, [r6, #12]
    aa30:	e5862008 	str	r2, [r6, #8]
    aa34:	1affffd1 	bne	a980 <_mktm_r+0x328>
    aa38:	e5963010 	ldr	r3, [r6, #16]
    aa3c:	e2533001 	subs	r3, r3, #1
    aa40:	4a00001c 	bmi	aab8 <_mktm_r+0x460>
    aa44:	e5863010 	str	r3, [r6, #16]
    aa48:	e1a03103 	lsl	r3, r3, #2
    aa4c:	e7993003 	ldr	r3, [r9, r3]
    aa50:	e586300c 	str	r3, [r6, #12]
    aa54:	eaffffc9 	b	a980 <_mktm_r+0x328>
    aa58:	e3530000 	cmp	r3, #0
    aa5c:	b2411001 	sublt	r1, r1, #1
    aa60:	b283303c 	addlt	r3, r3, #60	; 0x3c
    aa64:	b5861004 	strlt	r1, [r6, #4]
    aa68:	b5863000 	strlt	r3, [r6]
    aa6c:	eaffff9f 	b	a8f0 <_mktm_r+0x298>
    aa70:	e5983000 	ldr	r3, [r8]
    aa74:	e59a201c 	ldr	r2, [sl, #28]
    aa78:	e1530002 	cmp	r3, r2
    aa7c:	aaffffd3 	bge	a9d0 <_mktm_r+0x378>
    aa80:	e59a2038 	ldr	r2, [sl, #56]	; 0x38
    aa84:	e1530002 	cmp	r3, r2
    aa88:	a3a03000 	movge	r3, #0
    aa8c:	b3a03001 	movlt	r3, #1
    aa90:	e3530001 	cmp	r3, #1
    aa94:	e5863020 	str	r3, [r6, #32]
    aa98:	0affffce 	beq	a9d8 <_mktm_r+0x380>
    aa9c:	eaffff73 	b	a870 <_mktm_r+0x218>
    aaa0:	e3e03000 	mvn	r3, #0
    aaa4:	e5863020 	str	r3, [r6, #32]
    aaa8:	eaffff70 	b	a870 <_mktm_r+0x218>
    aaac:	e3a03000 	mov	r3, #0
    aab0:	e5863020 	str	r3, [r6, #32]
    aab4:	eaffff6d 	b	a870 <_mktm_r+0x218>
    aab8:	e5963014 	ldr	r3, [r6, #20]
    aabc:	e3a0100b 	mov	r1, #11
    aac0:	e2432001 	sub	r2, r3, #1
    aac4:	e3120003 	tst	r2, #3
    aac8:	e2833e76 	add	r3, r3, #1888	; 0x760
    aacc:	10833001 	addne	r3, r3, r1
    aad0:	e5862014 	str	r2, [r6, #20]
    aad4:	e5861010 	str	r1, [r6, #16]
    aad8:	11a02fc3 	asrne	r2, r3, #31
    aadc:	1a000009 	bne	ab08 <_mktm_r+0x4b0>
    aae0:	e59f106c 	ldr	r1, [pc, #108]	; ab54 <_mktm_r+0x4fc>
    aae4:	e283300b 	add	r3, r3, #11
    aae8:	e0c1b391 	smull	fp, r1, r1, r3
    aaec:	e1a02fc3 	asr	r2, r3, #31
    aaf0:	e06212c1 	rsb	r1, r2, r1, asr #5
    aaf4:	e3a00064 	mov	r0, #100	; 0x64
    aaf8:	e0010190 	mul	r1, r0, r1
    aafc:	e1530001 	cmp	r3, r1
    ab00:	159f3054 	ldrne	r3, [pc, #84]	; ab5c <_mktm_r+0x504>
    ab04:	1a000008 	bne	ab2c <_mktm_r+0x4d4>
    ab08:	e59f1044 	ldr	r1, [pc, #68]	; ab54 <_mktm_r+0x4fc>
    ab0c:	e0c10391 	smull	r0, r1, r1, r3
    ab10:	e06223c1 	rsb	r2, r2, r1, asr #7
    ab14:	e3a01e19 	mov	r1, #400	; 0x190
    ab18:	e0020291 	mul	r2, r1, r2
    ab1c:	e0532002 	subs	r2, r3, r2
    ab20:	e2723000 	rsbs	r3, r2, #0
    ab24:	e0b33002 	adcs	r3, r3, r2
    ab28:	e2833f5b 	add	r3, r3, #364	; 0x16c
    ab2c:	e586301c 	str	r3, [r6, #28]
    ab30:	e3a0302c 	mov	r3, #44	; 0x2c
    ab34:	eaffffc4 	b	aa4c <_mktm_r+0x3f4>
    ab38:	c22e4507 	eorgt	r4, lr, #29360128	; 0x1c00000
    ab3c:	00015180 	andeq	r5, r1, r0, lsl #3
    ab40:	91a2b3c5 			; <UNDEFINED> instruction: 0x91a2b3c5
    ab44:	92492493 	subls	r2, r9, #-1828716544	; 0x93000000
    ab48:	88888889 	stmhi	r8, {r0, r3, r7, fp, pc}
    ab4c:	000007b2 			; <UNDEFINED> instruction: 0x000007b2
    ab50:	0000ae7c 	andeq	sl, r0, ip, ror lr
    ab54:	51eb851f 	mvnpl	r8, pc, lsl r5
    ab58:	0000b998 	muleq	r0, r8, r9
    ab5c:	0000016d 	andeq	r0, r0, sp, ror #2

0000ab60 <__tz_lock>:
    ab60:	e12fff1e 	bx	lr

0000ab64 <__tz_unlock>:
    ab64:	e12fff1e 	bx	lr

0000ab68 <div>:
    ab68:	e92d40f8 	push	{r3, r4, r5, r6, r7, lr}
    ab6c:	e1a04001 	mov	r4, r1
    ab70:	e1a05000 	mov	r5, r0
    ab74:	e1a01002 	mov	r1, r2
    ab78:	e1a00004 	mov	r0, r4
    ab7c:	e1a06002 	mov	r6, r2
    ab80:	eb000013 	bl	abd4 <__aeabi_idiv>
    ab84:	e1a01006 	mov	r1, r6
    ab88:	e1a07000 	mov	r7, r0
    ab8c:	e1a00004 	mov	r0, r4
    ab90:	eb000097 	bl	adf4 <__aeabi_idivmod>
    ab94:	e3540000 	cmp	r4, #0
    ab98:	ba000006 	blt	abb8 <div+0x50>
    ab9c:	e3510000 	cmp	r1, #0
    aba0:	b2877001 	addlt	r7, r7, #1
    aba4:	b0661001 	rsblt	r1, r6, r1
    aba8:	e5857000 	str	r7, [r5]
    abac:	e5851004 	str	r1, [r5, #4]
    abb0:	e1a00005 	mov	r0, r5
    abb4:	e8bd80f8 	pop	{r3, r4, r5, r6, r7, pc}
    abb8:	e3510000 	cmp	r1, #0
    abbc:	c2477001 	subgt	r7, r7, #1
    abc0:	c0811006 	addgt	r1, r1, r6
    abc4:	eafffff7 	b	aba8 <div+0x40>

0000abc8 <__gettzinfo>:
    abc8:	e59f0000 	ldr	r0, [pc]	; abd0 <__gettzinfo+0x8>
    abcc:	e12fff1e 	bx	lr
    abd0:	0000b930 	andeq	fp, r0, r0, lsr r9

0000abd4 <__aeabi_idiv>:
    abd4:	e3510000 	cmp	r1, #0
    abd8:	0a000081 	beq	ade4 <.divsi3_skip_div0_test+0x208>

0000abdc <.divsi3_skip_div0_test>:
    abdc:	e020c001 	eor	ip, r0, r1
    abe0:	42611000 	rsbmi	r1, r1, #0
    abe4:	e2512001 	subs	r2, r1, #1
    abe8:	0a000070 	beq	adb0 <.divsi3_skip_div0_test+0x1d4>
    abec:	e1b03000 	movs	r3, r0
    abf0:	42603000 	rsbmi	r3, r0, #0
    abf4:	e1530001 	cmp	r3, r1
    abf8:	9a00006f 	bls	adbc <.divsi3_skip_div0_test+0x1e0>
    abfc:	e1110002 	tst	r1, r2
    ac00:	0a000071 	beq	adcc <.divsi3_skip_div0_test+0x1f0>
    ac04:	e16f2f13 	clz	r2, r3
    ac08:	e16f0f11 	clz	r0, r1
    ac0c:	e0402002 	sub	r2, r0, r2
    ac10:	e272201f 	rsbs	r2, r2, #31
    ac14:	10822082 	addne	r2, r2, r2, lsl #1
    ac18:	e3a00000 	mov	r0, #0
    ac1c:	108ff102 	addne	pc, pc, r2, lsl #2
    ac20:	e320f000 	nop	{0}
    ac24:	e1530f81 	cmp	r3, r1, lsl #31
    ac28:	e0a00000 	adc	r0, r0, r0
    ac2c:	20433f81 	subcs	r3, r3, r1, lsl #31
    ac30:	e1530f01 	cmp	r3, r1, lsl #30
    ac34:	e0a00000 	adc	r0, r0, r0
    ac38:	20433f01 	subcs	r3, r3, r1, lsl #30
    ac3c:	e1530e81 	cmp	r3, r1, lsl #29
    ac40:	e0a00000 	adc	r0, r0, r0
    ac44:	20433e81 	subcs	r3, r3, r1, lsl #29
    ac48:	e1530e01 	cmp	r3, r1, lsl #28
    ac4c:	e0a00000 	adc	r0, r0, r0
    ac50:	20433e01 	subcs	r3, r3, r1, lsl #28
    ac54:	e1530d81 	cmp	r3, r1, lsl #27
    ac58:	e0a00000 	adc	r0, r0, r0
    ac5c:	20433d81 	subcs	r3, r3, r1, lsl #27
    ac60:	e1530d01 	cmp	r3, r1, lsl #26
    ac64:	e0a00000 	adc	r0, r0, r0
    ac68:	20433d01 	subcs	r3, r3, r1, lsl #26
    ac6c:	e1530c81 	cmp	r3, r1, lsl #25
    ac70:	e0a00000 	adc	r0, r0, r0
    ac74:	20433c81 	subcs	r3, r3, r1, lsl #25
    ac78:	e1530c01 	cmp	r3, r1, lsl #24
    ac7c:	e0a00000 	adc	r0, r0, r0
    ac80:	20433c01 	subcs	r3, r3, r1, lsl #24
    ac84:	e1530b81 	cmp	r3, r1, lsl #23
    ac88:	e0a00000 	adc	r0, r0, r0
    ac8c:	20433b81 	subcs	r3, r3, r1, lsl #23
    ac90:	e1530b01 	cmp	r3, r1, lsl #22
    ac94:	e0a00000 	adc	r0, r0, r0
    ac98:	20433b01 	subcs	r3, r3, r1, lsl #22
    ac9c:	e1530a81 	cmp	r3, r1, lsl #21
    aca0:	e0a00000 	adc	r0, r0, r0
    aca4:	20433a81 	subcs	r3, r3, r1, lsl #21
    aca8:	e1530a01 	cmp	r3, r1, lsl #20
    acac:	e0a00000 	adc	r0, r0, r0
    acb0:	20433a01 	subcs	r3, r3, r1, lsl #20
    acb4:	e1530981 	cmp	r3, r1, lsl #19
    acb8:	e0a00000 	adc	r0, r0, r0
    acbc:	20433981 	subcs	r3, r3, r1, lsl #19
    acc0:	e1530901 	cmp	r3, r1, lsl #18
    acc4:	e0a00000 	adc	r0, r0, r0
    acc8:	20433901 	subcs	r3, r3, r1, lsl #18
    accc:	e1530881 	cmp	r3, r1, lsl #17
    acd0:	e0a00000 	adc	r0, r0, r0
    acd4:	20433881 	subcs	r3, r3, r1, lsl #17
    acd8:	e1530801 	cmp	r3, r1, lsl #16
    acdc:	e0a00000 	adc	r0, r0, r0
    ace0:	20433801 	subcs	r3, r3, r1, lsl #16
    ace4:	e1530781 	cmp	r3, r1, lsl #15
    ace8:	e0a00000 	adc	r0, r0, r0
    acec:	20433781 	subcs	r3, r3, r1, lsl #15
    acf0:	e1530701 	cmp	r3, r1, lsl #14
    acf4:	e0a00000 	adc	r0, r0, r0
    acf8:	20433701 	subcs	r3, r3, r1, lsl #14
    acfc:	e1530681 	cmp	r3, r1, lsl #13
    ad00:	e0a00000 	adc	r0, r0, r0
    ad04:	20433681 	subcs	r3, r3, r1, lsl #13
    ad08:	e1530601 	cmp	r3, r1, lsl #12
    ad0c:	e0a00000 	adc	r0, r0, r0
    ad10:	20433601 	subcs	r3, r3, r1, lsl #12
    ad14:	e1530581 	cmp	r3, r1, lsl #11
    ad18:	e0a00000 	adc	r0, r0, r0
    ad1c:	20433581 	subcs	r3, r3, r1, lsl #11
    ad20:	e1530501 	cmp	r3, r1, lsl #10
    ad24:	e0a00000 	adc	r0, r0, r0
    ad28:	20433501 	subcs	r3, r3, r1, lsl #10
    ad2c:	e1530481 	cmp	r3, r1, lsl #9
    ad30:	e0a00000 	adc	r0, r0, r0
    ad34:	20433481 	subcs	r3, r3, r1, lsl #9
    ad38:	e1530401 	cmp	r3, r1, lsl #8
    ad3c:	e0a00000 	adc	r0, r0, r0
    ad40:	20433401 	subcs	r3, r3, r1, lsl #8
    ad44:	e1530381 	cmp	r3, r1, lsl #7
    ad48:	e0a00000 	adc	r0, r0, r0
    ad4c:	20433381 	subcs	r3, r3, r1, lsl #7
    ad50:	e1530301 	cmp	r3, r1, lsl #6
    ad54:	e0a00000 	adc	r0, r0, r0
    ad58:	20433301 	subcs	r3, r3, r1, lsl #6
    ad5c:	e1530281 	cmp	r3, r1, lsl #5
    ad60:	e0a00000 	adc	r0, r0, r0
    ad64:	20433281 	subcs	r3, r3, r1, lsl #5
    ad68:	e1530201 	cmp	r3, r1, lsl #4
    ad6c:	e0a00000 	adc	r0, r0, r0
    ad70:	20433201 	subcs	r3, r3, r1, lsl #4
    ad74:	e1530181 	cmp	r3, r1, lsl #3
    ad78:	e0a00000 	adc	r0, r0, r0
    ad7c:	20433181 	subcs	r3, r3, r1, lsl #3
    ad80:	e1530101 	cmp	r3, r1, lsl #2
    ad84:	e0a00000 	adc	r0, r0, r0
    ad88:	20433101 	subcs	r3, r3, r1, lsl #2
    ad8c:	e1530081 	cmp	r3, r1, lsl #1
    ad90:	e0a00000 	adc	r0, r0, r0
    ad94:	20433081 	subcs	r3, r3, r1, lsl #1
    ad98:	e1530001 	cmp	r3, r1
    ad9c:	e0a00000 	adc	r0, r0, r0
    ada0:	20433001 	subcs	r3, r3, r1
    ada4:	e35c0000 	cmp	ip, #0
    ada8:	42600000 	rsbmi	r0, r0, #0
    adac:	e12fff1e 	bx	lr
    adb0:	e13c0000 	teq	ip, r0
    adb4:	42600000 	rsbmi	r0, r0, #0
    adb8:	e12fff1e 	bx	lr
    adbc:	33a00000 	movcc	r0, #0
    adc0:	01a00fcc 	asreq	r0, ip, #31
    adc4:	03800001 	orreq	r0, r0, #1
    adc8:	e12fff1e 	bx	lr
    adcc:	e16f2f11 	clz	r2, r1
    add0:	e262201f 	rsb	r2, r2, #31
    add4:	e35c0000 	cmp	ip, #0
    add8:	e1a00233 	lsr	r0, r3, r2
    addc:	42600000 	rsbmi	r0, r0, #0
    ade0:	e12fff1e 	bx	lr
    ade4:	e3500000 	cmp	r0, #0
    ade8:	c3e00102 	mvngt	r0, #-2147483648	; 0x80000000
    adec:	b3a00102 	movlt	r0, #-2147483648	; 0x80000000
    adf0:	ea000007 	b	ae14 <__aeabi_idiv0>

0000adf4 <__aeabi_idivmod>:
    adf4:	e3510000 	cmp	r1, #0
    adf8:	0afffff9 	beq	ade4 <.divsi3_skip_div0_test+0x208>
    adfc:	e92d4003 	push	{r0, r1, lr}
    ae00:	ebffff75 	bl	abdc <.divsi3_skip_div0_test>
    ae04:	e8bd4006 	pop	{r1, r2, lr}
    ae08:	e0030092 	mul	r3, r2, r0
    ae0c:	e0411003 	sub	r1, r1, r3
    ae10:	e12fff1e 	bx	lr

0000ae14 <__aeabi_idiv0>:
    ae14:	e12fff1e 	bx	lr

Disassembly of section .rodata:

0000ae18 <_global_impure_ptr>:
    ae18:	0000b500 	andeq	fp, r0, r0, lsl #10

0000ae1c <DAYS_IN_MONTH>:
    ae1c:	0000001f 	andeq	r0, r0, pc, lsl r0
    ae20:	0000001c 	andeq	r0, r0, ip, lsl r0
    ae24:	0000001f 	andeq	r0, r0, pc, lsl r0
    ae28:	0000001e 	andeq	r0, r0, lr, lsl r0
    ae2c:	0000001f 	andeq	r0, r0, pc, lsl r0
    ae30:	0000001e 	andeq	r0, r0, lr, lsl r0
    ae34:	0000001f 	andeq	r0, r0, pc, lsl r0
    ae38:	0000001f 	andeq	r0, r0, pc, lsl r0
    ae3c:	0000001e 	andeq	r0, r0, lr, lsl r0
    ae40:	0000001f 	andeq	r0, r0, pc, lsl r0
    ae44:	0000001e 	andeq	r0, r0, lr, lsl r0
    ae48:	0000001f 	andeq	r0, r0, pc, lsl r0

0000ae4c <_DAYS_BEFORE_MONTH>:
    ae4c:	00000000 	andeq	r0, r0, r0
    ae50:	0000001f 	andeq	r0, r0, pc, lsl r0
    ae54:	0000003b 	andeq	r0, r0, fp, lsr r0
    ae58:	0000005a 	andeq	r0, r0, sl, asr r0
    ae5c:	00000078 	andeq	r0, r0, r8, ror r0
    ae60:	00000097 	muleq	r0, r7, r0
    ae64:	000000b5 	strheq	r0, [r0], -r5
    ae68:	000000d4 	ldrdeq	r0, [r0], -r4
    ae6c:	000000f3 	strdeq	r0, [r0], -r3
    ae70:	00000111 	andeq	r0, r0, r1, lsl r1
    ae74:	00000130 	andeq	r0, r0, r0, lsr r1
    ae78:	0000014e 	andeq	r0, r0, lr, asr #2

0000ae7c <mon_lengths>:
    ae7c:	0000001f 	andeq	r0, r0, pc, lsl r0
    ae80:	0000001c 	andeq	r0, r0, ip, lsl r0
    ae84:	0000001f 	andeq	r0, r0, pc, lsl r0
    ae88:	0000001e 	andeq	r0, r0, lr, lsl r0
    ae8c:	0000001f 	andeq	r0, r0, pc, lsl r0
    ae90:	0000001e 	andeq	r0, r0, lr, lsl r0
    ae94:	0000001f 	andeq	r0, r0, pc, lsl r0
    ae98:	0000001f 	andeq	r0, r0, pc, lsl r0
    ae9c:	0000001e 	andeq	r0, r0, lr, lsl r0
    aea0:	0000001f 	andeq	r0, r0, pc, lsl r0
    aea4:	0000001e 	andeq	r0, r0, lr, lsl r0
    aea8:	0000001f 	andeq	r0, r0, pc, lsl r0
    aeac:	0000001f 	andeq	r0, r0, pc, lsl r0
    aeb0:	0000001d 	andeq	r0, r0, sp, lsl r0
    aeb4:	0000001f 	andeq	r0, r0, pc, lsl r0
    aeb8:	0000001e 	andeq	r0, r0, lr, lsl r0
    aebc:	0000001f 	andeq	r0, r0, pc, lsl r0
    aec0:	0000001e 	andeq	r0, r0, lr, lsl r0
    aec4:	0000001f 	andeq	r0, r0, pc, lsl r0
    aec8:	0000001f 	andeq	r0, r0, pc, lsl r0
    aecc:	0000001e 	andeq	r0, r0, lr, lsl r0
    aed0:	0000001f 	andeq	r0, r0, pc, lsl r0
    aed4:	0000001e 	andeq	r0, r0, lr, lsl r0
    aed8:	0000001f 	andeq	r0, r0, pc, lsl r0

0000aedc <year_lengths>:
    aedc:	0000016d 	andeq	r0, r0, sp, ror #2
    aee0:	0000016e 	andeq	r0, r0, lr, ror #2
    aee4:	00000043 	andeq	r0, r0, r3, asr #32
    aee8:	00544d47 	subseq	r4, r4, r7, asr #26

Disassembly of section .data:

0000aef0 <cur_fore>:
    aef0:	0000ffff 	strdeq	pc, [r0], -pc	; <UNPREDICTABLE>

0000aef4 <FONT>:
	...
    b080:	08080800 	stmdaeq	r8, {fp}
    b084:	00080808 	andeq	r0, r8, r8, lsl #16
    b088:	00000008 	andeq	r0, r0, r8
    b08c:	14141400 	ldrne	r1, [r4], #-1024	; 0x400
	...
    b098:	14140000 	ldrne	r0, [r4], #-0
    b09c:	143e143e 	ldrtne	r1, [lr], #-1086	; 0x43e
    b0a0:	00000014 	andeq	r0, r0, r4, lsl r0
    b0a4:	3c080000 	stccc	0, cr0, [r8], {-0}
    b0a8:	1e281c0a 	cdpne	12, 2, cr1, cr8, cr10, {0}
    b0ac:	00000008 	andeq	r0, r0, r8
    b0b0:	26060000 	strcs	r0, [r6], -r0
    b0b4:	32040810 	andcc	r0, r4, #16, 16	; 0x100000
    b0b8:	00000030 	andeq	r0, r0, r0, lsr r0
    b0bc:	021c0000 	andseq	r0, ip, #0
    b0c0:	122a0402 	eorne	r0, sl, #33554432	; 0x2000000
    b0c4:	0000002c 	andeq	r0, r0, ip, lsr #32
    b0c8:	04081800 	streq	r1, [r8], #-2048	; 0x800
	...
    b0d4:	08101020 	ldmdaeq	r0, {r5, ip}
    b0d8:	08080808 	stmdaeq	r8, {r3, fp}
    b0dc:	00201010 	eoreq	r1, r0, r0, lsl r0
    b0e0:	08040402 	stmdaeq	r4, {r1, sl}
    b0e4:	08080808 	stmdaeq	r8, {r3, fp}
    b0e8:	00020404 	andeq	r0, r2, r4, lsl #8
    b0ec:	08000000 	stmdaeq	r0, {}	; <UNPREDICTABLE>
    b0f0:	082a1c2a 	stmdaeq	sl!, {r1, r3, r5, sl, fp, ip}
    b0f4:	00000000 	andeq	r0, r0, r0
    b0f8:	08000000 	stmdaeq	r0, {}	; <UNPREDICTABLE>
    b0fc:	08083e08 	stmdaeq	r8, {r3, r9, sl, fp, ip, sp}
	...
    b108:	18000000 	stmdane	r0, {}	; <UNPREDICTABLE>
    b10c:	00040818 	andeq	r0, r4, r8, lsl r8
    b110:	00000000 	andeq	r0, r0, r0
    b114:	00003e00 	andeq	r3, r0, r0, lsl #28
	...
    b120:	18000000 	stmdane	r0, {}	; <UNPREDICTABLE>
    b124:	00000018 	andeq	r0, r0, r8, lsl r0
    b128:	10102020 	andsne	r2, r0, r0, lsr #32
    b12c:	04040808 	streq	r0, [r4], #-2056	; 0x808
    b130:	00000202 	andeq	r0, r0, r2, lsl #4
    b134:	32221c00 	eorcc	r1, r2, #0, 24
    b138:	2222262a 	eorcs	r2, r2, #44040192	; 0x2a00000
    b13c:	0000001c 	andeq	r0, r0, ip, lsl r0
    b140:	080c0800 	stmdaeq	ip, {fp}
    b144:	08080808 	stmdaeq	r8, {r3, fp}
    b148:	00000008 	andeq	r0, r0, r8
    b14c:	20221c00 	eorcs	r1, r2, r0, lsl #24
    b150:	02040810 	andeq	r0, r4, #16, 16	; 0x100000
    b154:	0000003e 	andeq	r0, r0, lr, lsr r0
    b158:	20221c00 	eorcs	r1, r2, r0, lsl #24
    b15c:	22202018 	eorcs	r2, r0, #24
    b160:	0000001c 	andeq	r0, r0, ip, lsl r0
    b164:	18181000 	ldmdane	r8, {ip}
    b168:	103e1414 	eorsne	r1, lr, r4, lsl r4
    b16c:	00000038 	andeq	r0, r0, r8, lsr r0
    b170:	02023e00 	andeq	r3, r2, #0, 28
    b174:	2220201e 	eorcs	r2, r0, #30
    b178:	0000001c 	andeq	r0, r0, ip, lsl r0
    b17c:	02041800 	andeq	r1, r4, #0, 16
    b180:	2222221e 	eorcs	r2, r2, #-536870911	; 0xe0000001
    b184:	0000001c 	andeq	r0, r0, ip, lsl r0
    b188:	20223e00 	eorcs	r3, r2, r0, lsl #28
    b18c:	08101020 	ldmdaeq	r0, {r5, ip}
    b190:	00000008 	andeq	r0, r0, r8
    b194:	22221c00 	eorcs	r1, r2, #0, 24
    b198:	2222221c 	eorcs	r2, r2, #28, 4	; 0xc0000001
    b19c:	0000001c 	andeq	r0, r0, ip, lsl r0
    b1a0:	22221c00 	eorcs	r1, r2, #0, 24
    b1a4:	10203c22 	eorne	r3, r0, r2, lsr #24
    b1a8:	0000000c 	andeq	r0, r0, ip
    b1ac:	18000000 	stmdane	r0, {}	; <UNPREDICTABLE>
    b1b0:	18000018 	stmdane	r0, {r3, r4}
    b1b4:	00000018 	andeq	r0, r0, r8, lsl r0
    b1b8:	18000000 	stmdane	r0, {}	; <UNPREDICTABLE>
    b1bc:	18000018 	stmdane	r0, {r3, r4}
    b1c0:	00040818 	andeq	r0, r4, r8, lsl r8
    b1c4:	30000000 	andcc	r0, r0, r0
    b1c8:	300c030c 	andcc	r0, ip, ip, lsl #6
	...
    b1d4:	003e003e 	eorseq	r0, lr, lr, lsr r0
    b1d8:	00000000 	andeq	r0, r0, r0
    b1dc:	03000000 	movweq	r0, #0
    b1e0:	030c300c 	movweq	r3, #49164	; 0xc00c
    b1e4:	00000000 	andeq	r0, r0, r0
    b1e8:	20221c00 	eorcs	r1, r2, r0, lsl #24
    b1ec:	00080810 	andeq	r0, r8, r0, lsl r8
    b1f0:	00000008 	andeq	r0, r0, r8
    b1f4:	221c0000 	andscs	r0, ip, #0
    b1f8:	021a3a3a 	andseq	r3, sl, #237568	; 0x3a000
    b1fc:	0000001c 	andeq	r0, r0, ip, lsl r0
    b200:	14080000 	strne	r0, [r8], #-0
    b204:	223e2222 	eorscs	r2, lr, #536870914	; 0x20000002
    b208:	00000022 	andeq	r0, r0, r2, lsr #32
    b20c:	221e0000 	andscs	r0, lr, #0
    b210:	22221e22 	eorcs	r1, r2, #544	; 0x220
    b214:	0000001e 	andeq	r0, r0, lr, lsl r0
    b218:	221c0000 	andscs	r0, ip, #0
    b21c:	22020202 	andcs	r0, r2, #536870912	; 0x20000000
    b220:	0000001c 	andeq	r0, r0, ip, lsl r0
    b224:	120e0000 	andne	r0, lr, #0
    b228:	12222222 	eorne	r2, r2, #536870914	; 0x20000002
    b22c:	0000000e 	andeq	r0, r0, lr
    b230:	023e0000 	eorseq	r0, lr, #0
    b234:	02021e02 	andeq	r1, r2, #2, 28
    b238:	0000003e 	andeq	r0, r0, lr, lsr r0
    b23c:	023e0000 	eorseq	r0, lr, #0
    b240:	02021e02 	andeq	r1, r2, #2, 28
    b244:	00000002 	andeq	r0, r0, r2
    b248:	221c0000 	andscs	r0, ip, #0
    b24c:	22223202 	eorcs	r3, r2, #536870912	; 0x20000000
    b250:	0000003c 	andeq	r0, r0, ip, lsr r0
    b254:	22220000 	eorcs	r0, r2, #0
    b258:	22223e22 	eorcs	r3, r2, #544	; 0x220
    b25c:	00000022 	andeq	r0, r0, r2, lsr #32
    b260:	083e0000 	ldmdaeq	lr!, {}	; <UNPREDICTABLE>
    b264:	08080808 	stmdaeq	r8, {r3, fp}
    b268:	0000003e 	andeq	r0, r0, lr, lsr r0
    b26c:	20380000 	eorscs	r0, r8, r0
    b270:	22222020 	eorcs	r2, r2, #32
    b274:	0000001c 	andeq	r0, r0, ip, lsl r0
    b278:	12220000 	eorne	r0, r2, #0
    b27c:	120a060a 	andne	r0, sl, #10485760	; 0xa00000
    b280:	00000022 	andeq	r0, r0, r2, lsr #32
    b284:	02020000 	andeq	r0, r2, #0
    b288:	02020202 	andeq	r0, r2, #536870912	; 0x20000000
    b28c:	0000003e 	andeq	r0, r0, lr, lsr r0
    b290:	36220000 	strtcc	r0, [r2], -r0
    b294:	22222a2a 	eorcs	r2, r2, #172032	; 0x2a000
    b298:	00000022 	andeq	r0, r0, r2, lsr #32
    b29c:	26220000 	strtcs	r0, [r2], -r0
    b2a0:	32322a26 	eorscc	r2, r2, #155648	; 0x26000
    b2a4:	00000022 	andeq	r0, r0, r2, lsr #32
    b2a8:	221c0000 	andscs	r0, ip, #0
    b2ac:	22222222 	eorcs	r2, r2, #536870914	; 0x20000002
    b2b0:	0000001c 	andeq	r0, r0, ip, lsl r0
    b2b4:	221e0000 	andscs	r0, lr, #0
    b2b8:	02021e22 	andeq	r1, r2, #544	; 0x220
    b2bc:	00000002 	andeq	r0, r0, r2
    b2c0:	221c0000 	andscs	r0, ip, #0
    b2c4:	22222222 	eorcs	r2, r2, #536870914	; 0x20000002
    b2c8:	0000301c 	andeq	r3, r0, ip, lsl r0
    b2cc:	221e0000 	andscs	r0, lr, #0
    b2d0:	120a1e22 	andne	r1, sl, #544	; 0x220
    b2d4:	00000022 	andeq	r0, r0, r2, lsr #32
    b2d8:	221c0000 	andscs	r0, ip, #0
    b2dc:	22201c02 	eorcs	r1, r0, #512	; 0x200
    b2e0:	0000001c 	andeq	r0, r0, ip, lsl r0
    b2e4:	083e0000 	ldmdaeq	lr!, {}	; <UNPREDICTABLE>
    b2e8:	08080808 	stmdaeq	r8, {r3, fp}
    b2ec:	00000008 	andeq	r0, r0, r8
    b2f0:	22220000 	eorcs	r0, r2, #0
    b2f4:	22222222 	eorcs	r2, r2, #536870914	; 0x20000002
    b2f8:	0000001c 	andeq	r0, r0, ip, lsl r0
    b2fc:	22220000 	eorcs	r0, r2, #0
    b300:	08141422 	ldmdaeq	r4, {r1, r5, sl, ip}
    b304:	00000008 	andeq	r0, r0, r8
    b308:	22220000 	eorcs	r0, r2, #0
    b30c:	362a2a22 	strtcc	r2, [sl], -r2, lsr #20
    b310:	00000022 	andeq	r0, r0, r2, lsr #32
    b314:	22220000 	eorcs	r0, r2, #0
    b318:	22140814 	andscs	r0, r4, #20, 16	; 0x140000
    b31c:	00000022 	andeq	r0, r0, r2, lsr #32
    b320:	22220000 	eorcs	r0, r2, #0
    b324:	08080814 	stmdaeq	r8, {r2, r4, fp}
    b328:	00000008 	andeq	r0, r0, r8
    b32c:	203e0000 	eorscs	r0, lr, r0
    b330:	02040810 	andeq	r0, r4, #16, 16	; 0x100000
    b334:	0000003e 	andeq	r0, r0, lr, lsr r0
    b338:	08080838 	stmdaeq	r8, {r3, r4, r5, fp}
    b33c:	08080808 	stmdaeq	r8, {r3, fp}
    b340:	00380808 	eorseq	r0, r8, r8, lsl #16
    b344:	04040202 	streq	r0, [r4], #-514	; 0x202
    b348:	10100808 	andsne	r0, r0, r8, lsl #16
    b34c:	00002020 	andeq	r2, r0, r0, lsr #32
    b350:	0808080e 	stmdaeq	r8, {r1, r2, r3, fp}
    b354:	08080808 	stmdaeq	r8, {r3, fp}
    b358:	000e0808 	andeq	r0, lr, r8, lsl #16
    b35c:	22140800 	andscs	r0, r4, #0, 16
	...
    b370:	00003f00 	andeq	r3, r0, r0, lsl #30
    b374:	10080c00 	andne	r0, r8, r0, lsl #24
	...
    b384:	3222223c 	eorcc	r2, r2, #60, 4	; 0xc0000003
    b388:	0000002c 	andeq	r0, r0, ip, lsr #32
    b38c:	02020200 	andeq	r0, r2, #0, 4
    b390:	2222221e 	eorcs	r2, r2, #-536870911	; 0xe0000001
    b394:	0000001e 	andeq	r0, r0, lr, lsl r0
    b398:	00000000 	andeq	r0, r0, r0
    b39c:	0202023c 	andeq	r0, r2, #60, 4	; 0xc0000003
    b3a0:	0000003c 	andeq	r0, r0, ip, lsr r0
    b3a4:	20202000 	eorcs	r2, r0, r0
    b3a8:	2222223c 	eorcs	r2, r2, #60, 4	; 0xc0000003
    b3ac:	0000003c 	andeq	r0, r0, ip, lsr r0
    b3b0:	00000000 	andeq	r0, r0, r0
    b3b4:	023e221c 	eorseq	r2, lr, #28, 4	; 0xc0000001
    b3b8:	0000001c 	andeq	r0, r0, ip, lsl r0
    b3bc:	04043800 	streq	r3, [r4], #-2048	; 0x800
    b3c0:	0404041e 	streq	r0, [r4], #-1054	; 0x41e
    b3c4:	00000004 	andeq	r0, r0, r4
    b3c8:	00000000 	andeq	r0, r0, r0
    b3cc:	2222223c 	eorcs	r2, r2, #60, 4	; 0xc0000003
    b3d0:	1c20203c 	stcne	0, cr2, [r0], #-240	; 0xffffff10
    b3d4:	02020200 	andeq	r0, r2, #0, 4
    b3d8:	2222221e 	eorcs	r2, r2, #-536870911	; 0xe0000001
    b3dc:	00000022 	andeq	r0, r0, r2, lsr #32
    b3e0:	00080800 	andeq	r0, r8, r0, lsl #16
    b3e4:	0808080c 	stmdaeq	r8, {r2, r3, fp}
    b3e8:	0000001c 	andeq	r0, r0, ip, lsl r0
    b3ec:	00101000 	andseq	r1, r0, r0
    b3f0:	1010101c 	andsne	r1, r0, ip, lsl r0
    b3f4:	0e101010 	mrceq	0, 0, r1, cr0, cr0, {0}
    b3f8:	02020200 	andeq	r0, r2, #0, 4
    b3fc:	0a060a12 	beq	18dc4c <heap_low+0x180a94>
    b400:	00000012 	andeq	r0, r0, r2, lsl r0
    b404:	08080c00 	stmdaeq	r8, {sl, fp}
    b408:	08080808 	stmdaeq	r8, {r3, fp}
    b40c:	0000001c 	andeq	r0, r0, ip, lsl r0
    b410:	00000000 	andeq	r0, r0, r0
    b414:	2a2a2a16 	bcs	a95c74 <heap_low+0xa88abc>
    b418:	00000022 	andeq	r0, r0, r2, lsr #32
    b41c:	00000000 	andeq	r0, r0, r0
    b420:	2222261a 	eorcs	r2, r2, #27262976	; 0x1a00000
    b424:	00000022 	andeq	r0, r0, r2, lsr #32
    b428:	00000000 	andeq	r0, r0, r0
    b42c:	2222221c 	eorcs	r2, r2, #28, 4	; 0xc0000001
    b430:	0000001c 	andeq	r0, r0, ip, lsl r0
    b434:	00000000 	andeq	r0, r0, r0
    b438:	2222221e 	eorcs	r2, r2, #-536870911	; 0xe0000001
    b43c:	0202021e 	andeq	r0, r2, #-536870911	; 0xe0000001
    b440:	00000000 	andeq	r0, r0, r0
    b444:	2222223c 	eorcs	r2, r2, #60, 4	; 0xc0000003
    b448:	2020203c 	eorcs	r2, r0, ip, lsr r0
    b44c:	00000000 	andeq	r0, r0, r0
    b450:	0202061a 	andeq	r0, r2, #27262976	; 0x1a00000
    b454:	00000002 	andeq	r0, r0, r2
    b458:	00000000 	andeq	r0, r0, r0
    b45c:	201c023c 	andscs	r0, ip, ip, lsr r2
    b460:	0000001e 	andeq	r0, r0, lr, lsl r0
    b464:	08080800 	stmdaeq	r8, {fp}
    b468:	0808083e 	stmdaeq	r8, {r1, r2, r3, r4, r5, fp}
    b46c:	00000030 	andeq	r0, r0, r0, lsr r0
    b470:	00000000 	andeq	r0, r0, r0
    b474:	32222222 	eorcc	r2, r2, #536870914	; 0x20000002
    b478:	0000002c 	andeq	r0, r0, ip, lsr #32
    b47c:	00000000 	andeq	r0, r0, r0
    b480:	08141436 	ldmdaeq	r4, {r1, r2, r4, r5, sl, ip}
    b484:	00000008 	andeq	r0, r0, r8
    b488:	00000000 	andeq	r0, r0, r0
    b48c:	2a2a2a22 	bcs	a95d1c <heap_low+0xa88b64>
    b490:	00000014 	andeq	r0, r0, r4, lsl r0
    b494:	00000000 	andeq	r0, r0, r0
    b498:	14081422 	strne	r1, [r8], #-1058	; 0x422
    b49c:	00000022 	andeq	r0, r0, r2, lsr #32
    b4a0:	00000000 	andeq	r0, r0, r0
    b4a4:	22222222 	eorcs	r2, r2, #536870914	; 0x20000002
    b4a8:	1c20203c 	stcne	0, cr2, [r0], #-240	; 0xffffff10
    b4ac:	00000000 	andeq	r0, r0, r0
    b4b0:	0408103e 	streq	r1, [r8], #-62	; 0x3e
    b4b4:	0000003e 	andeq	r0, r0, lr, lsr r0
    b4b8:	10101020 	andsne	r1, r0, r0, lsr #32
    b4bc:	10100810 	andsne	r0, r0, r0, lsl r8
    b4c0:	00201010 	eoreq	r1, r0, r0, lsl r0
    b4c4:	08080808 	stmdaeq	r8, {r3, fp}
    b4c8:	08080808 	stmdaeq	r8, {r3, fp}
    b4cc:	00080808 	andeq	r0, r8, r8, lsl #16
    b4d0:	04040402 	streq	r0, [r4], #-1026	; 0x402
    b4d4:	04040804 	streq	r0, [r4], #-2052	; 0x804
    b4d8:	00020404 	andeq	r0, r2, r4, lsl #8
    b4dc:	102a0400 	eorne	r0, sl, r0, lsl #8
	...
    b4e8:	08000000 	stmdaeq	r0, {}	; <UNPREDICTABLE>
    b4ec:	22141408 	andscs	r1, r4, #8, 8	; 0x8000000
    b4f0:	0000003e 	andeq	r0, r0, lr, lsr r0

0000b4f4 <i2c_mcp7941x_slave_address>:
    b4f4:	0000006f 	andeq	r0, r0, pc, rrx

0000b4f8 <_impure_ptr>:
    b4f8:	0000b500 	andeq	fp, r0, r0, lsl #10
    b4fc:	00000000 	andeq	r0, r0, r0

0000b500 <impure_data>:
    b500:	00000000 	andeq	r0, r0, r0
    b504:	0000b7ec 	andeq	fp, r0, ip, ror #15
    b508:	0000b854 	andeq	fp, r0, r4, asr r8
    b50c:	0000b8bc 			; <UNDEFINED> instruction: 0x0000b8bc
	...
    b534:	0000aee4 	andeq	sl, r0, r4, ror #29
	...
    b5a8:	00000001 	andeq	r0, r0, r1
    b5ac:	00000000 	andeq	r0, r0, r0
    b5b0:	abcd330e 	blge	ff3581f0 <__ram_end+0xf73581f0>
    b5b4:	e66d1234 			; <UNDEFINED> instruction: 0xe66d1234
    b5b8:	0005deec 	andeq	sp, r5, ip, ror #29
    b5bc:	0000000b 	andeq	r0, r0, fp
	...

0000b928 <_tzname>:
    b928:	0000aee8 	andeq	sl, r0, r8, ror #29
    b92c:	0000aee8 	andeq	sl, r0, r8, ror #29

0000b930 <tzinfo>:
    b930:	00000001 	andeq	r0, r0, r1
    b934:	00000000 	andeq	r0, r0, r0
    b938:	0000004a 	andeq	r0, r0, sl, asr #32
	...
    b954:	0000004a 	andeq	r0, r0, sl, asr #32
	...

Disassembly of section .bss:

0000b970 <heap_end>:
	...

0000b978 <st_startup_micros>:
	...

0000b980 <rtc_startup_seconds>:
	...

0000b988 <cur_y>:
    b988:	00000000 	andeq	r0, r0, r0

0000b98c <cur_x>:
    b98c:	00000000 	andeq	r0, r0, r0

0000b990 <cur_back>:
    b990:	00000000 	andeq	r0, r0, r0

0000b994 <_timezone>:
    b994:	00000000 	andeq	r0, r0, r0

0000b998 <_daylight>:
    b998:	00000000 	andeq	r0, r0, r0

0000b99c <fb_pitch>:
    b99c:	00000000 	andeq	r0, r0, r0

0000b9a0 <fb_width>:
    b9a0:	00000000 	andeq	r0, r0, r0

0000b9a4 <fb_depth>:
    b9a4:	00000000 	andeq	r0, r0, r0

0000b9a8 <fb_addr>:
    b9a8:	00000000 	andeq	r0, r0, r0

0000b9ac <fb_height>:
    b9ac:	00000000 	andeq	r0, r0, r0

0000b9b0 <fb_size>:
    b9b0:	00000000 	andeq	r0, r0, r0
