
build/main.elf:     file format elf32-littlearm


Disassembly of section .init:

00008000 <__ram_start>:
    8000:	e59ff018 	ldr	pc, [pc, #24]	; 8020 <reset_handler>
    8004:	e59ff018 	ldr	pc, [pc, #24]	; 8024 <undefined_handler>
    8008:	e59ff018 	ldr	pc, [pc, #24]	; 8028 <swi_handler>
    800c:	e59ff018 	ldr	pc, [pc, #24]	; 802c <prefetch_handler>
    8010:	e59ff018 	ldr	pc, [pc, #24]	; 8030 <data_handler>
    8014:	e59ff018 	ldr	pc, [pc, #24]	; 8034 <unused_handler>
    8018:	e59ff018 	ldr	pc, [pc, #24]	; 8038 <irq_handler>
    801c:	e59ff018 	ldr	pc, [pc, #24]	; 803c <fiq_handler>

00008020 <reset_handler>:
    8020:	00008040 	andeq	r8, r0, r0, asr #32

00008024 <undefined_handler>:
    8024:	000080e0 	andeq	r8, r0, r0, ror #1

00008028 <swi_handler>:
    8028:	000080e0 	andeq	r8, r0, r0, ror #1

0000802c <prefetch_handler>:
    802c:	000080e0 	andeq	r8, r0, r0, ror #1

00008030 <data_handler>:
    8030:	000080e0 	andeq	r8, r0, r0, ror #1

00008034 <unused_handler>:
    8034:	000080e0 	andeq	r8, r0, r0, ror #1

00008038 <irq_handler>:
    8038:	000080bc 	strheq	r8, [r0], -ip

0000803c <fiq_handler>:
    803c:	000080c0 	andeq	r8, r0, r0, asr #1

00008040 <reset>:
    8040:	e59f107c 	ldr	r1, [pc, #124]	; 80c4 <fiq+0x4>
    8044:	e3a02000 	mov	r2, #0
    8048:	e59f3078 	ldr	r3, [pc, #120]	; 80c8 <fiq+0x8>
    804c:	e1520003 	cmp	r2, r3
    8050:	34910004 	ldrcc	r0, [r1], #4
    8054:	34820004 	strcc	r0, [r2], #4
    8058:	3afffffb 	bcc	804c <reset+0xc>
    805c:	e321f0d2 	msr	CPSR_c, #210	; 0xd2
    8060:	e59f0064 	ldr	r0, [pc, #100]	; 80cc <fiq+0xc>
    8064:	e1a0d000 	mov	sp, r0
    8068:	e321f0d1 	msr	CPSR_c, #209	; 0xd1
    806c:	e59f005c 	ldr	r0, [pc, #92]	; 80d0 <fiq+0x10>
    8070:	e1a0d000 	mov	sp, r0
    8074:	e321f0d3 	msr	CPSR_c, #211	; 0xd3
    8078:	e59f0054 	ldr	r0, [pc, #84]	; 80d4 <fiq+0x14>
    807c:	e1a0d000 	mov	sp, r0
    8080:	ee110f50 	mrc	15, 0, r0, cr1, cr0, {2}
    8084:	e3800603 	orr	r0, r0, #3145728	; 0x300000
    8088:	e3800503 	orr	r0, r0, #12582912	; 0xc00000
    808c:	ee010f50 	mcr	15, 0, r0, cr1, cr0, {2}
    8090:	e3a00101 	mov	r0, #1073741824	; 0x40000000
    8094:	eee80a10 	vmsr	fpexc, r0
    8098:	e3a00000 	mov	r0, #0
    809c:	e59f1034 	ldr	r1, [pc, #52]	; 80d8 <fiq+0x18>
    80a0:	e59f2034 	ldr	r2, [pc, #52]	; 80dc <fiq+0x1c>
    80a4:	e1510002 	cmp	r1, r2
    80a8:	34810004 	strcc	r0, [r1], #4
    80ac:	3afffffc 	bcc	80a4 <reset+0x64>
    80b0:	eb00006b 	bl	8264 <notmain>

000080b4 <halt>:
    80b4:	e320f002 	wfe
    80b8:	eafffffd 	b	80b4 <halt>

000080bc <irq>:
    80bc:	ea00001b 	b	8130 <c_irq_handler>

000080c0 <fiq>:
    80c0:	ea00001b 	b	8134 <c_fiq_handler>
    80c4:	00008000 	andeq	r8, r0, r0
    80c8:	00008020 	andeq	r8, r0, r0, lsr #32
    80cc:	000093b0 			; <UNDEFINED> instruction: 0x000093b0
    80d0:	00008fb0 			; <UNDEFINED> instruction: 0x00008fb0
    80d4:	000097b0 			; <UNDEFINED> instruction: 0x000097b0
    80d8:	000083b0 			; <UNDEFINED> instruction: 0x000083b0
    80dc:	000083b0 			; <UNDEFINED> instruction: 0x000083b0

Disassembly of section .text:

000080e0 <hang>:
    80e0:	eafffffe 	b	80e0 <hang>

000080e4 <__enable_irq>:
    80e4:	e10f0000 	mrs	r0, CPSR
    80e8:	e3c00080 	bic	r0, r0, #128	; 0x80
    80ec:	e121f000 	msr	CPSR_c, r0
    80f0:	e12fff1e 	bx	lr

000080f4 <__disable_irq>:
    80f4:	e10f1000 	mrs	r1, CPSR
    80f8:	e3811080 	orr	r1, r1, #128	; 0x80
    80fc:	e121f001 	msr	CPSR_c, r1
    8100:	e12fff1e 	bx	lr

00008104 <__enable_fiq>:
    8104:	e10f0000 	mrs	r0, CPSR
    8108:	e3c00040 	bic	r0, r0, #64	; 0x40
    810c:	e121f000 	msr	CPSR_c, r0
    8110:	e12fff1e 	bx	lr

00008114 <__disable_fiq>:
    8114:	e10f1000 	mrs	r1, CPSR
    8118:	e3811040 	orr	r1, r1, #64	; 0x40
    811c:	e121f001 	msr	CPSR_c, r1
    8120:	e12fff1e 	bx	lr

00008124 <memory_barrier>:
    8124:	e3a00000 	mov	r0, #0
    8128:	ee070fba 	mcr	15, 0, r0, cr7, cr10, {5}
    812c:	e12fff1e 	bx	lr

00008130 <c_irq_handler>:
    8130:	e25ef004 	subs	pc, lr, #4

00008134 <c_fiq_handler>:
    8134:	e25ef004 	subs	pc, lr, #4

00008138 <FT245RL_init>:
    8138:	e59f3024 	ldr	r3, [pc, #36]	; 8164 <FT245RL_init+0x2c>
    813c:	e5932008 	ldr	r2, [r3, #8]
    8140:	e3c22bff 	bic	r2, r2, #261120	; 0x3fc00
    8144:	e3c22d0f 	bic	r2, r2, #960	; 0x3c0
    8148:	e3822d09 	orr	r2, r2, #576	; 0x240
    814c:	e5832008 	str	r2, [r3, #8]
    8150:	e3a02502 	mov	r2, #8388608	; 0x800000
    8154:	e583201c 	str	r2, [r3, #28]
    8158:	e3a02501 	mov	r2, #4194304	; 0x400000
    815c:	e5832028 	str	r2, [r3, #40]	; 0x28
    8160:	e12fff1e 	bx	lr
    8164:	20200000 	eorcs	r0, r0, r0

00008168 <FT245RL_write_data>:
    8168:	e59f3064 	ldr	r3, [pc, #100]	; 81d4 <FT245RL_write_data+0x6c>
    816c:	e59f2064 	ldr	r2, [pc, #100]	; 81d8 <FT245RL_write_data+0x70>
    8170:	e5931000 	ldr	r1, [r3]
    8174:	e0012002 	and	r2, r1, r2
    8178:	e3822692 	orr	r2, r2, #153092096	; 0x9200000
    817c:	e3822d49 	orr	r2, r2, #4672	; 0x1240
    8180:	e5832000 	str	r2, [r3]
    8184:	e5932004 	ldr	r2, [r3, #4]
    8188:	e3c2203f 	bic	r2, r2, #63	; 0x3f
    818c:	e3822009 	orr	r2, r2, #9
    8190:	e5832004 	str	r2, [r3, #4]
    8194:	e3a02501 	mov	r2, #4194304	; 0x400000
    8198:	e583201c 	str	r2, [r3, #28]
    819c:	e320f000 	nop	{0}
    81a0:	e3c03007 	bic	r3, r0, #7
    81a4:	e1a03203 	lsl	r3, r3, #4
    81a8:	e2000007 	and	r0, r0, #7
    81ac:	e1830100 	orr	r0, r3, r0, lsl #2
    81b0:	e2202ef9 	eor	r2, r0, #3984	; 0xf90
    81b4:	e59f3018 	ldr	r3, [pc, #24]	; 81d4 <FT245RL_write_data+0x6c>
    81b8:	e222200c 	eor	r2, r2, #12
    81bc:	e583001c 	str	r0, [r3, #28]
    81c0:	e5832028 	str	r2, [r3, #40]	; 0x28
    81c4:	e320f000 	nop	{0}
    81c8:	e3a02501 	mov	r2, #4194304	; 0x400000
    81cc:	e5832028 	str	r2, [r3, #40]	; 0x28
    81d0:	e12fff1e 	bx	lr
    81d4:	20200000 	eorcs	r0, r0, r0
    81d8:	c01f803f 	andsgt	r8, pc, pc, lsr r0	; <UNPREDICTABLE>

000081dc <FT245RL_read_data>:
    81dc:	e59f3058 	ldr	r3, [pc, #88]	; 823c <FT245RL_read_data+0x60>
    81e0:	e59f2058 	ldr	r2, [pc, #88]	; 8240 <FT245RL_read_data+0x64>
    81e4:	e5931000 	ldr	r1, [r3]
    81e8:	e0012002 	and	r2, r1, r2
    81ec:	e5832000 	str	r2, [r3]
    81f0:	e5932004 	ldr	r2, [r3, #4]
    81f4:	e3c2203f 	bic	r2, r2, #63	; 0x3f
    81f8:	e5832004 	str	r2, [r3, #4]
    81fc:	e3a02502 	mov	r2, #8388608	; 0x800000
    8200:	e5832028 	str	r2, [r3, #40]	; 0x28
    8204:	e320f000 	nop	{0}
    8208:	e59f202c 	ldr	r2, [pc, #44]	; 823c <FT245RL_read_data+0x60>
    820c:	e59f3030 	ldr	r3, [pc, #48]	; 8244 <FT245RL_read_data+0x68>
    8210:	e5921034 	ldr	r1, [r2, #52]	; 0x34
    8214:	e0013003 	and	r3, r1, r3
    8218:	e3a01502 	mov	r1, #8388608	; 0x800000
    821c:	e582101c 	str	r1, [r2, #28]
    8220:	e1a03123 	lsr	r3, r3, #2
    8224:	e320f000 	nop	{0}
    8228:	e1a00123 	lsr	r0, r3, #2
    822c:	e3c00007 	bic	r0, r0, #7
    8230:	e203300f 	and	r3, r3, #15
    8234:	e1800003 	orr	r0, r0, r3
    8238:	e12fff1e 	bx	lr
    823c:	20200000 	eorcs	r0, r0, r0
    8240:	c01f803f 	andsgt	r8, pc, pc, lsr r0	; <UNPREDICTABLE>
    8244:	00000f9c 	muleq	r0, ip, pc	; <UNPREDICTABLE>

00008248 <FT245RL_data_available>:
    8248:	e59f3010 	ldr	r3, [pc, #16]	; 8260 <FT245RL_data_available+0x18>
    824c:	e5930034 	ldr	r0, [r3, #52]	; 0x34
    8250:	e1a00ca0 	lsr	r0, r0, #25
    8254:	e2200001 	eor	r0, r0, #1
    8258:	e2000001 	and	r0, r0, #1
    825c:	e12fff1e 	bx	lr
    8260:	20200000 	eorcs	r0, r0, r0

00008264 <notmain>:
    8264:	e59f2134 	ldr	r2, [pc, #308]	; 83a0 <notmain+0x13c>
    8268:	e92d4070 	push	{r4, r5, r6, lr}
    826c:	e5923008 	ldr	r3, [r2, #8]
    8270:	e3a0e502 	mov	lr, #8388608	; 0x800000
    8274:	e3c33bff 	bic	r3, r3, #261120	; 0x3fc00
    8278:	e3c33d0f 	bic	r3, r3, #960	; 0x3c0
    827c:	e3833d09 	orr	r3, r3, #576	; 0x240
    8280:	e3a0c501 	mov	ip, #4194304	; 0x400000
    8284:	e59f5118 	ldr	r5, [pc, #280]	; 83a4 <notmain+0x140>
    8288:	e5823008 	str	r3, [r2, #8]
    828c:	e3a04088 	mov	r4, #136	; 0x88
    8290:	e582e01c 	str	lr, [r2, #28]
    8294:	e1a03002 	mov	r3, r2
    8298:	e582c028 	str	ip, [r2, #40]	; 0x28
    829c:	e5932034 	ldr	r2, [r3, #52]	; 0x34
    82a0:	e3120402 	tst	r2, #33554432	; 0x2000000
    82a4:	1afffffc 	bne	829c <notmain+0x38>
    82a8:	e5931000 	ldr	r1, [r3]
    82ac:	e59f20f4 	ldr	r2, [pc, #244]	; 83a8 <notmain+0x144>
    82b0:	e0012002 	and	r2, r1, r2
    82b4:	e5832000 	str	r2, [r3]
    82b8:	e5932004 	ldr	r2, [r3, #4]
    82bc:	e3c2203f 	bic	r2, r2, #63	; 0x3f
    82c0:	e5832004 	str	r2, [r3, #4]
    82c4:	e583e028 	str	lr, [r3, #40]	; 0x28
    82c8:	e320f000 	nop	{0}
    82cc:	e59f20d8 	ldr	r2, [pc, #216]	; 83ac <notmain+0x148>
    82d0:	e5931034 	ldr	r1, [r3, #52]	; 0x34
    82d4:	e583e01c 	str	lr, [r3, #28]
    82d8:	e0012002 	and	r2, r1, r2
    82dc:	e1a01222 	lsr	r1, r2, #4
    82e0:	e3c11007 	bic	r1, r1, #7
    82e4:	e1a02d82 	lsl	r2, r2, #27
    82e8:	e1812ea2 	orr	r2, r1, r2, lsr #29
    82ec:	e6ef2072 	uxtb	r2, r2
    82f0:	e6ef0072 	uxtb	r0, r2
    82f4:	e320f000 	nop	{0}
    82f8:	e350000d 	cmp	r0, #13
    82fc:	0a000016 	beq	835c <notmain+0xf8>
    8300:	e5936000 	ldr	r6, [r3]
    8304:	e59f109c 	ldr	r1, [pc, #156]	; 83a8 <notmain+0x144>
    8308:	e0061001 	and	r1, r6, r1
    830c:	e3811692 	orr	r1, r1, #153092096	; 0x9200000
    8310:	e3811d49 	orr	r1, r1, #4672	; 0x1240
    8314:	e5831000 	str	r1, [r3]
    8318:	e5931004 	ldr	r1, [r3, #4]
    831c:	e3c1103f 	bic	r1, r1, #63	; 0x3f
    8320:	e3811009 	orr	r1, r1, #9
    8324:	e5831004 	str	r1, [r3, #4]
    8328:	e583c01c 	str	ip, [r3, #28]
    832c:	e320f000 	nop	{0}
    8330:	e3c00007 	bic	r0, r0, #7
    8334:	e1a00200 	lsl	r0, r0, #4
    8338:	e2022007 	and	r2, r2, #7
    833c:	e1802102 	orr	r2, r0, r2, lsl #2
    8340:	e2221ef9 	eor	r1, r2, #3984	; 0xf90
    8344:	e221100c 	eor	r1, r1, #12
    8348:	e583201c 	str	r2, [r3, #28]
    834c:	e5831028 	str	r1, [r3, #40]	; 0x28
    8350:	e320f000 	nop	{0}
    8354:	e583c028 	str	ip, [r3, #40]	; 0x28
    8358:	eaffffcf 	b	829c <notmain+0x38>
    835c:	e5936000 	ldr	r6, [r3]
    8360:	e59f1040 	ldr	r1, [pc, #64]	; 83a8 <notmain+0x144>
    8364:	e0061001 	and	r1, r6, r1
    8368:	e3811692 	orr	r1, r1, #153092096	; 0x9200000
    836c:	e3811d49 	orr	r1, r1, #4672	; 0x1240
    8370:	e5831000 	str	r1, [r3]
    8374:	e5931004 	ldr	r1, [r3, #4]
    8378:	e3c1103f 	bic	r1, r1, #63	; 0x3f
    837c:	e3811009 	orr	r1, r1, #9
    8380:	e5831004 	str	r1, [r3, #4]
    8384:	e583c01c 	str	ip, [r3, #28]
    8388:	e320f000 	nop	{0}
    838c:	e583401c 	str	r4, [r3, #28]
    8390:	e5835028 	str	r5, [r3, #40]	; 0x28
    8394:	e320f000 	nop	{0}
    8398:	e583c028 	str	ip, [r3, #40]	; 0x28
    839c:	eaffffd7 	b	8300 <notmain+0x9c>
    83a0:	20200000 	eorcs	r0, r0, r0
    83a4:	00000f14 	andeq	r0, r0, r4, lsl pc
    83a8:	c01f803f 	andsgt	r8, pc, pc, lsr r0	; <UNPREDICTABLE>
    83ac:	00000f9c 	muleq	r0, ip, pc	; <UNPREDICTABLE>
